	.cpu cortex-m0plus
	.arch armv6s-m
	.fpu softvfp
	.eabi_attribute 20, 1
	.eabi_attribute 21, 1
	.eabi_attribute 23, 3
	.eabi_attribute 24, 1
	.eabi_attribute 25, 1
	.eabi_attribute 26, 1
	.eabi_attribute 30, 2
	.eabi_attribute 34, 0
	.eabi_attribute 18, 4
	.file	"kernel.cpp"
	.text
.Ltext0:
	.cfi_sections	.debug_frame
	.file 1 "J:\\PROJECT\\auroraOS\\apps\\kernel.cpp"
	.section	.text._ZN5VNode9open_fileEPKciPPv,"axG",%progbits,_ZN5VNode9open_fileEPKciPPv,comdat
	.align	1
	.p2align 2,,3
	.weak	_ZN5VNode9open_fileEPKciPPv
	.syntax unified
	.code	16
	.thumb_func
	.type	_ZN5VNode9open_fileEPKciPPv, %function
_ZN5VNode9open_fileEPKciPPv:
.LVL0:
.LFB174:
	.file 2 "J:\\PROJECT\\auroraOS\\vfs/vfs.hpp"
	.loc 2 10 17 view -0
	.cfi_startproc
	@ args = 0, pretend = 0, frame = 0
	@ frame_needed = 0, uses_anonymous_args = 0
	@ link register save eliminated.
	.loc 2 10 58 view .LVU1
	.loc 2 10 68 is_stmt 0 view .LVU2
	movs	r0, #0
.LVL1:
	.loc 2 10 68 view .LVU3
	@ sp needed
	bx	lr
	.cfi_endproc
.LFE174:
	.size	_ZN5VNode9open_fileEPKciPPv, .-_ZN5VNode9open_fileEPKciPPv
	.section	.text._ZN5VNode10close_fileEPv,"axG",%progbits,_ZN5VNode10close_fileEPv,comdat
	.align	1
	.p2align 2,,3
	.weak	_ZN5VNode10close_fileEPv
	.syntax unified
	.code	16
	.thumb_func
	.type	_ZN5VNode10close_fileEPv, %function
_ZN5VNode10close_fileEPv:
.LVL2:
.LFB175:
	.loc 2 11 17 is_stmt 1 view -0
	.cfi_startproc
	@ args = 0, pretend = 0, frame = 0
	@ frame_needed = 0, uses_anonymous_args = 0
	@ link register save eliminated.
	.loc 2 11 38 view .LVU5
	.loc 2 11 48 is_stmt 0 view .LVU6
	movs	r0, #0
.LVL3:
	.loc 2 11 48 view .LVU7
	@ sp needed
	bx	lr
	.cfi_endproc
.LFE175:
	.size	_ZN5VNode10close_fileEPv, .-_ZN5VNode10close_fileEPv
	.section	.text._ZN5VNode4readEPciiPv,"axG",%progbits,_ZN5VNode4readEPciiPv,comdat
	.align	1
	.p2align 2,,3
	.weak	_ZN5VNode4readEPciiPv
	.syntax unified
	.code	16
	.thumb_func
	.type	_ZN5VNode4readEPciiPv, %function
_ZN5VNode4readEPciiPv:
.LVL4:
.LFB176:
	.loc 2 13 17 is_stmt 1 view -0
	.cfi_startproc
	@ args = 4, pretend = 0, frame = 0
	@ frame_needed = 0, uses_anonymous_args = 0
	@ link register save eliminated.
	.loc 2 13 52 view .LVU9
	.loc 2 13 60 is_stmt 0 discriminator 1 view .LVU10
	movs	r0, #1
.LVL5:
	.loc 2 13 63 view .LVU11
	@ sp needed
	rsbs	r0, r0, #0
	bx	lr
	.cfi_endproc
.LFE176:
	.size	_ZN5VNode4readEPciiPv, .-_ZN5VNode4readEPciiPv
	.section	.text._ZN5VNode5writeEPKciiPv,"axG",%progbits,_ZN5VNode5writeEPKciiPv,comdat
	.align	1
	.p2align 2,,3
	.weak	_ZN5VNode5writeEPKciiPv
	.syntax unified
	.code	16
	.thumb_func
	.type	_ZN5VNode5writeEPKciiPv, %function
_ZN5VNode5writeEPKciiPv:
.LVL6:
.LFB177:
	.loc 2 14 17 is_stmt 1 view -0
	.cfi_startproc
	@ args = 4, pretend = 0, frame = 0
	@ frame_needed = 0, uses_anonymous_args = 0
	@ link register save eliminated.
	.loc 2 14 59 view .LVU13
	.loc 2 14 67 is_stmt 0 discriminator 1 view .LVU14
	movs	r0, #1
.LVL7:
	.loc 2 14 70 view .LVU15
	@ sp needed
	rsbs	r0, r0, #0
	bx	lr
	.cfi_endproc
.LFE177:
	.size	_ZN5VNode5writeEPKciiPv, .-_ZN5VNode5writeEPKciiPv
	.section	.text._ZN5VNode5ioctlEiPvS0_,"axG",%progbits,_ZN5VNode5ioctlEiPvS0_,comdat
	.align	1
	.p2align 2,,3
	.weak	_ZN5VNode5ioctlEiPvS0_
	.syntax unified
	.code	16
	.thumb_func
	.type	_ZN5VNode5ioctlEiPvS0_, %function
_ZN5VNode5ioctlEiPvS0_:
.LVL8:
.LFB178:
	.loc 2 15 17 is_stmt 1 view -0
	.cfi_startproc
	@ args = 0, pretend = 0, frame = 0
	@ frame_needed = 0, uses_anonymous_args = 0
	@ link register save eliminated.
	.loc 2 15 47 view .LVU17
	.loc 2 15 55 is_stmt 0 discriminator 1 view .LVU18
	movs	r0, #1
.LVL9:
	.loc 2 15 58 view .LVU19
	@ sp needed
	rsbs	r0, r0, #0
	bx	lr
	.cfi_endproc
.LFE178:
	.size	_ZN5VNode5ioctlEiPvS0_, .-_ZN5VNode5ioctlEiPvS0_
	.section	.text._ZNK5VNode8get_sizeEPv,"axG",%progbits,_ZNK5VNode8get_sizeEPv,comdat
	.align	1
	.p2align 2,,3
	.weak	_ZNK5VNode8get_sizeEPv
	.syntax unified
	.code	16
	.thumb_func
	.type	_ZNK5VNode8get_sizeEPv, %function
_ZNK5VNode8get_sizeEPv:
.LVL10:
.LFB179:
	.loc 2 16 17 is_stmt 1 view -0
	.cfi_startproc
	@ args = 0, pretend = 0, frame = 0
	@ frame_needed = 0, uses_anonymous_args = 0
	@ link register save eliminated.
	.loc 2 16 42 view .LVU21
	.loc 2 16 52 is_stmt 0 view .LVU22
	movs	r0, #0
.LVL11:
	.loc 2 16 52 view .LVU23
	@ sp needed
	bx	lr
	.cfi_endproc
.LFE179:
	.size	_ZNK5VNode8get_sizeEPv, .-_ZNK5VNode8get_sizeEPv
	.section	.text._ZN6Device4openEv,"axG",%progbits,_ZN6Device4openEv,comdat
	.align	1
	.p2align 2,,3
	.weak	_ZN6Device4openEv
	.syntax unified
	.code	16
	.thumb_func
	.type	_ZN6Device4openEv, %function
_ZN6Device4openEv:
.LVL12:
.LFB205:
	.file 3 "J:\\PROJECT\\auroraOS\\kernel/device.hpp"
	.loc 3 37 17 is_stmt 1 view -0
	.cfi_startproc
	@ args = 0, pretend = 0, frame = 0
	@ frame_needed = 0, uses_anonymous_args = 0
	@ link register save eliminated.
	.loc 3 37 26 view .LVU25
	.loc 3 37 36 is_stmt 0 view .LVU26
	movs	r0, #0
.LVL13:
	.loc 3 37 36 view .LVU27
	@ sp needed
	bx	lr
	.cfi_endproc
.LFE205:
	.size	_ZN6Device4openEv, .-_ZN6Device4openEv
	.section	.text._ZN6Device5closeEv,"axG",%progbits,_ZN6Device5closeEv,comdat
	.align	1
	.p2align 2,,3
	.weak	_ZN6Device5closeEv
	.syntax unified
	.code	16
	.thumb_func
	.type	_ZN6Device5closeEv, %function
_ZN6Device5closeEv:
.LVL14:
.LFB206:
	.loc 3 38 17 is_stmt 1 view -0
	.cfi_startproc
	@ args = 0, pretend = 0, frame = 0
	@ frame_needed = 0, uses_anonymous_args = 0
	@ link register save eliminated.
	.loc 3 38 27 view .LVU29
	.loc 3 38 37 is_stmt 0 view .LVU30
	movs	r0, #0
.LVL15:
	.loc 3 38 37 view .LVU31
	@ sp needed
	bx	lr
	.cfi_endproc
.LFE206:
	.size	_ZN6Device5closeEv, .-_ZN6Device5closeEv
	.section	.text._ZN6Device5ioctlEiPvS0_,"axG",%progbits,_ZN6Device5ioctlEiPvS0_,comdat
	.align	1
	.p2align 2,,3
	.weak	_ZN6Device5ioctlEiPvS0_
	.syntax unified
	.code	16
	.thumb_func
	.type	_ZN6Device5ioctlEiPvS0_, %function
_ZN6Device5ioctlEiPvS0_:
.LVL16:
.LFB207:
	.loc 3 39 17 is_stmt 1 view -0
	.cfi_startproc
	@ args = 0, pretend = 0, frame = 0
	@ frame_needed = 0, uses_anonymous_args = 0
	@ link register save eliminated.
	.loc 3 39 56 view .LVU33
	.loc 3 39 64 is_stmt 0 discriminator 1 view .LVU34
	movs	r0, #1
.LVL17:
	.loc 3 39 67 view .LVU35
	@ sp needed
	rsbs	r0, r0, #0
	bx	lr
	.cfi_endproc
.LFE207:
	.size	_ZN6Device5ioctlEiPvS0_, .-_ZN6Device5ioctlEiPvS0_
	.section	.text._ZN10CharDevice4readEPciiPv,"axG",%progbits,_ZN10CharDevice4readEPciiPv,comdat
	.align	1
	.p2align 2,,3
	.weak	_ZN10CharDevice4readEPciiPv
	.syntax unified
	.code	16
	.thumb_func
	.type	_ZN10CharDevice4readEPciiPv, %function
_ZN10CharDevice4readEPciiPv:
.LVL18:
.LFB211:
	.loc 3 48 17 is_stmt 1 view -0
	.cfi_startproc
	@ args = 4, pretend = 0, frame = 0
	@ frame_needed = 0, uses_anonymous_args = 0
	@ link register save eliminated.
	.loc 3 48 61 view .LVU37
	.loc 3 48 69 is_stmt 0 discriminator 1 view .LVU38
	movs	r0, #1
.LVL19:
	.loc 3 48 72 view .LVU39
	@ sp needed
	rsbs	r0, r0, #0
	bx	lr
	.cfi_endproc
.LFE211:
	.size	_ZN10CharDevice4readEPciiPv, .-_ZN10CharDevice4readEPciiPv
	.section	.text._ZN10CharDevice5writeEPKciiPv,"axG",%progbits,_ZN10CharDevice5writeEPKciiPv,comdat
	.align	1
	.p2align 2,,3
	.weak	_ZN10CharDevice5writeEPKciiPv
	.syntax unified
	.code	16
	.thumb_func
	.type	_ZN10CharDevice5writeEPKciiPv, %function
_ZN10CharDevice5writeEPKciiPv:
.LVL20:
.LFB212:
	.loc 3 49 17 is_stmt 1 view -0
	.cfi_startproc
	@ args = 4, pretend = 0, frame = 0
	@ frame_needed = 0, uses_anonymous_args = 0
	@ link register save eliminated.
	.loc 3 49 68 view .LVU41
	.loc 3 49 76 is_stmt 0 discriminator 1 view .LVU42
	movs	r0, #1
.LVL21:
	.loc 3 49 79 view .LVU43
	@ sp needed
	rsbs	r0, r0, #0
	bx	lr
	.cfi_endproc
.LFE212:
	.size	_ZN10CharDevice5writeEPKciiPv, .-_ZN10CharDevice5writeEPKciiPv
	.section	.text._ZN10OledDriver4openEv,"axG",%progbits,_ZN10OledDriver4openEv,comdat
	.align	1
	.p2align 2,,3
	.weak	_ZN10OledDriver4openEv
	.syntax unified
	.code	16
	.thumb_func
	.type	_ZN10OledDriver4openEv, %function
_ZN10OledDriver4openEv:
.LVL22:
.LFB575:
	.file 4 "J:/PROJECT/auroraOS/drivers/display/oled_driver.hpp"
	.loc 4 20 9 is_stmt 1 view -0
	.cfi_startproc
	@ args = 0, pretend = 0, frame = 0
	@ frame_needed = 0, uses_anonymous_args = 0
	@ link register save eliminated.
	.loc 4 23 9 view .LVU45
	.loc 4 24 5 is_stmt 0 view .LVU46
	movs	r0, #0
.LVL23:
	.loc 4 24 5 view .LVU47
	@ sp needed
	bx	lr
	.cfi_endproc
.LFE575:
	.size	_ZN10OledDriver4openEv, .-_ZN10OledDriver4openEv
	.section	.text._ZN11TouchDriver4openEv,"axG",%progbits,_ZN11TouchDriver4openEv,comdat
	.align	1
	.p2align 2,,3
	.weak	_ZN11TouchDriver4openEv
	.syntax unified
	.code	16
	.thumb_func
	.type	_ZN11TouchDriver4openEv, %function
_ZN11TouchDriver4openEv:
.LVL24:
.LFB593:
	.file 5 "J:/PROJECT/auroraOS/drivers/input/touch_driver.hpp"
	.loc 5 29 9 is_stmt 1 view -0
	.cfi_startproc
	@ args = 0, pretend = 0, frame = 0
	@ frame_needed = 0, uses_anonymous_args = 0
	@ link register save eliminated.
	.loc 5 31 9 view .LVU49
	.loc 5 32 5 is_stmt 0 view .LVU50
	movs	r0, #0
.LVL25:
	.loc 5 32 5 view .LVU51
	@ sp needed
	bx	lr
	.cfi_endproc
.LFE593:
	.size	_ZN11TouchDriver4openEv, .-_ZN11TouchDriver4openEv
	.global	__aeabi_uidivmod
	.section	.text._ZN11TouchDriver4readEPciiPv,"axG",%progbits,_ZN11TouchDriver4readEPciiPv,comdat
	.align	1
	.p2align 2,,3
	.weak	_ZN11TouchDriver4readEPciiPv
	.syntax unified
	.code	16
	.thumb_func
	.type	_ZN11TouchDriver4readEPciiPv, %function
_ZN11TouchDriver4readEPciiPv:
.LVL26:
.LFB594:
	.loc 5 37 9 is_stmt 1 view -0
	.cfi_startproc
	@ args = 4, pretend = 0, frame = 0
	@ frame_needed = 0, uses_anonymous_args = 0
	.loc 5 38 9 view .LVU53
	.loc 5 37 9 is_stmt 0 view .LVU54
	movs	r3, r0
.LVL27:
	.loc 5 37 9 view .LVU55
	push	{r4, r5, r6, lr}
	.cfi_def_cfa_offset 16
	.cfi_offset 4, -16
	.cfi_offset 5, -12
	.cfi_offset 6, -8
	.cfi_offset 14, -4
	.loc 5 38 64 discriminator 1 view .LVU56
	movs	r0, #0
.LVL28:
	.loc 5 38 9 view .LVU57
	cmp	r2, #5
	ble	.L15
	.loc 5 40 9 is_stmt 1 view .LVU58
.LVL29:
	.loc 5 42 9 view .LVU59
	.loc 5 43 9 view .LVU60
	.loc 5 43 20 is_stmt 0 view .LVU61
	ldr	r4, .L33
	ldr	r2, [r4]
.LVL30:
	.loc 5 43 20 view .LVU62
	adds	r2, r2, #1
	str	r2, [r4]
	.loc 5 46 9 is_stmt 1 view .LVU63
.LBB1446:
	ldrb	r4, [r3, #28]
	cmp	r4, #0
	beq	.L31
.LBE1446:
	.loc 5 71 17 is_stmt 0 view .LVU64
	ldr	r2, [r3, #24]
	.loc 5 68 24 view .LVU65
	ldrh	r5, [r3, #20]
	.loc 5 69 24 view .LVU66
	ldrh	r4, [r3, #22]
	.loc 5 82 22 view .LVU67
	adds	r6, r2, #1
	.loc 5 67 9 is_stmt 1 view .LVU68
	.loc 5 68 13 view .LVU69
	.loc 5 68 22 is_stmt 0 view .LVU70
	strh	r5, [r1]
	.loc 5 69 13 is_stmt 1 view .LVU71
	.loc 5 69 22 is_stmt 0 view .LVU72
	strh	r4, [r1, #2]
	.loc 5 71 13 is_stmt 1 view .LVU73
	cmp	r2, #0
	beq	.L20
	.loc 5 73 20 view .LVU74
	cmp	r2, #19
	bgt	.L22
	.loc 5 74 17 view .LVU75
	.loc 5 74 30 is_stmt 0 view .LVU76
	movs	r2, #2
	strb	r2, [r1, #4]
	.loc 5 75 17 is_stmt 1 view .LVU77
	.loc 5 75 24 is_stmt 0 view .LVU78
	ldr	r2, [r3, #32]
	adds	r5, r5, r2
	.loc 5 76 24 view .LVU79
	ldr	r2, [r3, #36]
	.loc 5 75 24 view .LVU80
	strh	r5, [r3, #20]
	.loc 5 76 17 is_stmt 1 view .LVU81
	.loc 5 76 24 is_stmt 0 view .LVU82
	adds	r4, r4, r2
	strh	r4, [r3, #22]
	b	.L21
.L31:
.LBB1449:
	ldr	r0, .L33+4
	.loc 5 46 26 discriminator 1 view .LVU83
	ldr	r5, .L33+8
	muls	r2, r0
	movs	r0, #1
	rors	r2, r2, r0
	cmp	r2, r5
	bhi	.L18
.LBB1447:
	.loc 5 47 13 is_stmt 1 view .LVU84
	.loc 5 50 44 is_stmt 0 view .LVU85
	ldr	r6, .L33+12
	.loc 5 47 25 view .LVU86
	strb	r0, [r3, #28]
	.loc 5 48 13 is_stmt 1 view .LVU87
	.loc 5 50 44 is_stmt 0 view .LVU88
	ldr	r2, [r6]
	.loc 5 48 23 view .LVU89
	str	r4, [r3, #24]
	.loc 5 49 13 is_stmt 1 view .LVU90
	.loc 5 50 13 view .LVU91
	.loc 5 50 44 is_stmt 0 view .LVU92
	adds	r2, r2, #1
	.loc 5 50 49 view .LVU93
	asrs	r5, r2, #31
	lsrs	r5, r5, #30
	adds	r0, r2, r5
	movs	r2, #3
	ands	r2, r0
	subs	r2, r2, r5
	.loc 5 50 27 view .LVU94
	str	r2, [r6]
	.loc 5 52 13 is_stmt 1 view .LVU95
	cmp	r2, #1
	bls	.L32
	.loc 5 60 17 view .LVU96
	.loc 5 61 17 view .LVU97
	.loc 5 60 24 is_stmt 0 view .LVU98
	ldr	r2, .L33+16
	.loc 5 63 25 view .LVU99
	str	r4, [r3, #36]
	.loc 5 60 24 view .LVU100
	str	r2, [r3, #20]
	.loc 5 62 17 is_stmt 1 view .LVU101
	.loc 5 62 25 is_stmt 0 view .LVU102
	movs	r2, #4
	str	r2, [r3, #32]
	.loc 5 63 17 is_stmt 1 view .LVU103
.LBE1447:
.LBE1449:
	.loc 5 67 9 view .LVU104
	.loc 5 68 13 view .LVU105
	.loc 5 68 22 is_stmt 0 view .LVU106
	adds	r2, r2, #16
	strh	r2, [r1]
	.loc 5 69 13 is_stmt 1 view .LVU107
	.loc 5 69 22 is_stmt 0 view .LVU108
	adds	r2, r2, #44
	strh	r2, [r1, #2]
	.loc 5 71 13 is_stmt 1 view .LVU109
.L20:
	.loc 5 72 17 view .LVU110
	.loc 5 72 30 is_stmt 0 view .LVU111
	movs	r2, #1
	movs	r6, #1
	strb	r2, [r1, #4]
.L21:
	.loc 5 81 13 is_stmt 1 view .LVU112
	.loc 5 81 29 is_stmt 0 view .LVU113
	movs	r2, #1
	.loc 5 87 33 view .LVU114
	movs	r0, #6
	.loc 5 81 29 view .LVU115
	strb	r2, [r1, #5]
	.loc 5 82 13 is_stmt 1 view .LVU116
	.loc 5 82 22 is_stmt 0 view .LVU117
	str	r6, [r3, #24]
.LVL31:
.L15:
	.loc 5 88 5 view .LVU118
	@ sp needed
	pop	{r4, r5, r6, pc}
.LVL32:
.L18:
	.loc 5 67 9 is_stmt 1 view .LVU119
	.loc 5 84 13 view .LVU120
	.loc 5 87 33 is_stmt 0 view .LVU121
	movs	r0, #6
	.loc 5 84 29 view .LVU122
	strb	r4, [r1, #5]
	b	.L15
.L22:
	.loc 5 78 17 is_stmt 1 view .LVU123
	.loc 5 78 30 is_stmt 0 view .LVU124
	movs	r2, #3
	strb	r2, [r1, #4]
	.loc 5 79 17 is_stmt 1 view .LVU125
	.loc 5 79 29 is_stmt 0 view .LVU126
	strb	r0, [r3, #28]
	b	.L21
.L32:
.LBB1450:
.LBB1448:
	.loc 5 54 17 is_stmt 1 view .LVU127
	.loc 5 55 17 view .LVU128
	.loc 5 54 24 is_stmt 0 view .LVU129
	ldr	r2, .L33+20
	.loc 5 57 25 view .LVU130
	str	r4, [r3, #36]
	.loc 5 54 24 view .LVU131
	str	r2, [r3, #20]
	.loc 5 56 17 is_stmt 1 view .LVU132
	.loc 5 56 25 is_stmt 0 view .LVU133
	movs	r2, #4
	rsbs	r2, r2, #0
	str	r2, [r3, #32]
	.loc 5 57 17 is_stmt 1 view .LVU134
.LBE1448:
.LBE1450:
	.loc 5 67 9 view .LVU135
	.loc 5 68 13 view .LVU136
	.loc 5 68 22 is_stmt 0 view .LVU137
	adds	r2, r2, #104
	strh	r2, [r1]
	.loc 5 69 13 is_stmt 1 view .LVU138
	.loc 5 69 22 is_stmt 0 view .LVU139
	subs	r2, r2, #36
	strh	r2, [r1, #2]
	.loc 5 71 13 is_stmt 1 view .LVU140
	b	.L20
.L34:
	.align	2
.L33:
	.word	_ZZN11TouchDriver4readEPciiPvE11frame_count
	.word	-1775253149
	.word	28633115
	.word	_ZZN11TouchDriver4readEPciiPvE13gesture_cycle
	.word	4194324
	.word	4194404
	.cfi_endproc
.LFE594:
	.size	_ZN11TouchDriver4readEPciiPv, .-_ZN11TouchDriver4readEPciiPv
	.section	.text._ZN15HeartRateSensor15set_sample_rateEt,"axG",%progbits,_ZN15HeartRateSensor15set_sample_rateEt,comdat
	.align	1
	.p2align 2,,3
	.weak	_ZN15HeartRateSensor15set_sample_rateEt
	.syntax unified
	.code	16
	.thumb_func
	.type	_ZN15HeartRateSensor15set_sample_rateEt, %function
_ZN15HeartRateSensor15set_sample_rateEt:
.LVL33:
.LFB641:
	.file 6 "J:/PROJECT/auroraOS/drivers/sensor/sensor_framework.hpp"
	.loc 6 63 10 view -0
	.cfi_startproc
	@ args = 0, pretend = 0, frame = 0
	@ frame_needed = 0, uses_anonymous_args = 0
	@ link register save eliminated.
	.loc 6 64 9 view .LVU142
	.loc 6 64 22 is_stmt 0 view .LVU143
	strh	r1, [r0, #4]
	.loc 6 65 5 view .LVU144
	@ sp needed
	bx	lr
	.cfi_endproc
.LFE641:
	.size	_ZN15HeartRateSensor15set_sample_rateEt, .-_ZN15HeartRateSensor15set_sample_rateEt
	.section	.text._ZN15HeartRateSensor8power_upEv,"axG",%progbits,_ZN15HeartRateSensor8power_upEv,comdat
	.align	1
	.p2align 2,,3
	.weak	_ZN15HeartRateSensor8power_upEv
	.syntax unified
	.code	16
	.thumb_func
	.type	_ZN15HeartRateSensor8power_upEv, %function
_ZN15HeartRateSensor8power_upEv:
.LVL34:
.LFB642:
	.loc 6 67 10 is_stmt 1 view -0
	.cfi_startproc
	@ args = 0, pretend = 0, frame = 0
	@ frame_needed = 0, uses_anonymous_args = 0
	@ link register save eliminated.
	.loc 6 68 9 view .LVU146
	.loc 6 68 24 is_stmt 0 view .LVU147
	movs	r3, #1
	.loc 6 69 5 view .LVU148
	@ sp needed
	.loc 6 68 24 view .LVU149
	strb	r3, [r0, #6]
	.loc 6 69 5 view .LVU150
	bx	lr
	.cfi_endproc
.LFE642:
	.size	_ZN15HeartRateSensor8power_upEv, .-_ZN15HeartRateSensor8power_upEv
	.section	.text._ZN15HeartRateSensor10power_downEv,"axG",%progbits,_ZN15HeartRateSensor10power_downEv,comdat
	.align	1
	.p2align 2,,3
	.weak	_ZN15HeartRateSensor10power_downEv
	.syntax unified
	.code	16
	.thumb_func
	.type	_ZN15HeartRateSensor10power_downEv, %function
_ZN15HeartRateSensor10power_downEv:
.LVL35:
.LFB643:
	.loc 6 71 10 is_stmt 1 view -0
	.cfi_startproc
	@ args = 0, pretend = 0, frame = 0
	@ frame_needed = 0, uses_anonymous_args = 0
	@ link register save eliminated.
	.loc 6 72 9 view .LVU152
	.loc 6 72 24 is_stmt 0 view .LVU153
	movs	r3, #0
	.loc 6 73 5 view .LVU154
	@ sp needed
	.loc 6 72 24 view .LVU155
	strb	r3, [r0, #6]
	.loc 6 73 5 view .LVU156
	bx	lr
	.cfi_endproc
.LFE643:
	.size	_ZN15HeartRateSensor10power_downEv, .-_ZN15HeartRateSensor10power_downEv
	.section	.text._ZN15HeartRateSensor4readEP10SensorData,"axG",%progbits,_ZN15HeartRateSensor4readEP10SensorData,comdat
	.align	1
	.p2align 2,,3
	.weak	_ZN15HeartRateSensor4readEP10SensorData
	.syntax unified
	.code	16
	.thumb_func
	.type	_ZN15HeartRateSensor4readEP10SensorData, %function
_ZN15HeartRateSensor4readEP10SensorData:
.LVL36:
.LFB644:
	.loc 6 75 10 is_stmt 1 view -0
	.cfi_startproc
	@ args = 0, pretend = 0, frame = 0
	@ frame_needed = 0, uses_anonymous_args = 0
	@ link register save eliminated.
	.loc 6 76 9 view .LVU158
	.loc 6 75 10 is_stmt 0 view .LVU159
	movs	r3, r0
	.loc 6 76 14 view .LVU160
	ldrb	r0, [r0, #6]
.LVL37:
	.loc 6 76 9 view .LVU161
	cmp	r0, #0
	beq	.L39
	.loc 6 76 29 discriminator 2 view .LVU162
	cmp	r1, #0
	beq	.L40
	.loc 6 79 9 is_stmt 1 view .LVU163
	.loc 6 79 24 is_stmt 0 view .LVU164
	movs	r2, #0
	.loc 6 80 31 view .LVU165
	ldr	r3, [r3, #8]
.LVL38:
	.loc 6 79 24 view .LVU166
	strb	r2, [r1]
	.loc 6 80 9 is_stmt 1 view .LVU167
	.loc 6 80 31 is_stmt 0 view .LVU168
	str	r3, [r1, #8]
	.loc 6 81 9 is_stmt 1 view .LVU169
.L39:
	.loc 6 82 5 is_stmt 0 view .LVU170
	@ sp needed
	bx	lr
.LVL39:
.L40:
	.loc 6 76 50 discriminator 3 view .LVU171
	movs	r0, #0
	b	.L39
	.cfi_endproc
.LFE644:
	.size	_ZN15HeartRateSensor4readEP10SensorData, .-_ZN15HeartRateSensor4readEP10SensorData
	.section	.text._ZN19AccelerometerSensor15set_sample_rateEt,"axG",%progbits,_ZN19AccelerometerSensor15set_sample_rateEt,comdat
	.align	1
	.p2align 2,,3
	.weak	_ZN19AccelerometerSensor15set_sample_rateEt
	.syntax unified
	.code	16
	.thumb_func
	.type	_ZN19AccelerometerSensor15set_sample_rateEt, %function
_ZN19AccelerometerSensor15set_sample_rateEt:
.LVL40:
.LFB651:
	.loc 6 138 10 is_stmt 1 view -0
	.cfi_startproc
	@ args = 0, pretend = 0, frame = 0
	@ frame_needed = 0, uses_anonymous_args = 0
	@ link register save eliminated.
	.loc 6 138 50 view .LVU173
	.loc 6 138 63 is_stmt 0 view .LVU174
	strh	r1, [r0, #4]
	.loc 6 138 69 view .LVU175
	@ sp needed
	bx	lr
	.cfi_endproc
.LFE651:
	.size	_ZN19AccelerometerSensor15set_sample_rateEt, .-_ZN19AccelerometerSensor15set_sample_rateEt
	.section	.text._ZN19AccelerometerSensor8power_upEv,"axG",%progbits,_ZN19AccelerometerSensor8power_upEv,comdat
	.align	1
	.p2align 2,,3
	.weak	_ZN19AccelerometerSensor8power_upEv
	.syntax unified
	.code	16
	.thumb_func
	.type	_ZN19AccelerometerSensor8power_upEv, %function
_ZN19AccelerometerSensor8power_upEv:
.LVL41:
.LFB652:
	.loc 6 139 10 is_stmt 1 view -0
	.cfi_startproc
	@ args = 0, pretend = 0, frame = 0
	@ frame_needed = 0, uses_anonymous_args = 0
	@ link register save eliminated.
	.loc 6 139 32 view .LVU177
	.loc 6 139 47 is_stmt 0 view .LVU178
	movs	r3, #1
	.loc 6 139 55 view .LVU179
	@ sp needed
	.loc 6 139 47 view .LVU180
	strb	r3, [r0, #6]
	.loc 6 139 55 view .LVU181
	bx	lr
	.cfi_endproc
.LFE652:
	.size	_ZN19AccelerometerSensor8power_upEv, .-_ZN19AccelerometerSensor8power_upEv
	.section	.text._ZN19AccelerometerSensor10power_downEv,"axG",%progbits,_ZN19AccelerometerSensor10power_downEv,comdat
	.align	1
	.p2align 2,,3
	.weak	_ZN19AccelerometerSensor10power_downEv
	.syntax unified
	.code	16
	.thumb_func
	.type	_ZN19AccelerometerSensor10power_downEv, %function
_ZN19AccelerometerSensor10power_downEv:
.LVL42:
.LFB653:
	.loc 6 140 10 is_stmt 1 view -0
	.cfi_startproc
	@ args = 0, pretend = 0, frame = 0
	@ frame_needed = 0, uses_anonymous_args = 0
	@ link register save eliminated.
	.loc 6 140 34 view .LVU183
	.loc 6 140 49 is_stmt 0 view .LVU184
	movs	r3, #0
	.loc 6 140 58 view .LVU185
	@ sp needed
	.loc 6 140 49 view .LVU186
	strb	r3, [r0, #6]
	.loc 6 140 58 view .LVU187
	bx	lr
	.cfi_endproc
.LFE653:
	.size	_ZN19AccelerometerSensor10power_downEv, .-_ZN19AccelerometerSensor10power_downEv
	.section	.text._ZN15HeartRateSensorD2Ev,"axG",%progbits,_ZN15HeartRateSensorD5Ev,comdat
	.align	1
	.p2align 2,,3
	.weak	_ZN15HeartRateSensorD2Ev
	.syntax unified
	.code	16
	.thumb_func
	.type	_ZN15HeartRateSensorD2Ev, %function
_ZN15HeartRateSensorD2Ev:
.LVL43:
.LFB658:
	.loc 6 48 7 is_stmt 1 view -0
	.cfi_startproc
	@ args = 0, pretend = 0, frame = 0
	@ frame_needed = 0, uses_anonymous_args = 0
	@ link register save eliminated.
.LBB1451:
.LBI1451:
	.loc 6 37 13 view .LVU189
	.loc 6 37 13 is_stmt 0 view .LVU190
.LBE1451:
	.loc 6 48 7 view .LVU191
	@ sp needed
	bx	lr
	.cfi_endproc
.LFE658:
	.size	_ZN15HeartRateSensorD2Ev, .-_ZN15HeartRateSensorD2Ev
	.weak	_ZN15HeartRateSensorD1Ev
	.thumb_set _ZN15HeartRateSensorD1Ev,_ZN15HeartRateSensorD2Ev
	.section	.text._ZN19AccelerometerSensorD2Ev,"axG",%progbits,_ZN19AccelerometerSensorD5Ev,comdat
	.align	1
	.p2align 2,,3
	.weak	_ZN19AccelerometerSensorD2Ev
	.syntax unified
	.code	16
	.thumb_func
	.type	_ZN19AccelerometerSensorD2Ev, %function
_ZN19AccelerometerSensorD2Ev:
.LVL44:
.LFB662:
	.loc 6 88 7 is_stmt 1 view -0
	.cfi_startproc
	@ args = 0, pretend = 0, frame = 0
	@ frame_needed = 0, uses_anonymous_args = 0
	@ link register save eliminated.
.LBB1452:
.LBI1452:
	.loc 6 37 13 view .LVU193
	.loc 6 37 13 is_stmt 0 view .LVU194
.LBE1452:
	.loc 6 88 7 view .LVU195
	@ sp needed
	bx	lr
	.cfi_endproc
.LFE662:
	.size	_ZN19AccelerometerSensorD2Ev, .-_ZN19AccelerometerSensorD2Ev
	.weak	_ZN19AccelerometerSensorD1Ev
	.thumb_set _ZN19AccelerometerSensorD1Ev,_ZN19AccelerometerSensorD2Ev
	.section	.text._ZN13SensorManagerD2Ev,"axG",%progbits,_ZN13SensorManagerD5Ev,comdat
	.align	1
	.p2align 2,,3
	.weak	_ZN13SensorManagerD2Ev
	.syntax unified
	.code	16
	.thumb_func
	.type	_ZN13SensorManagerD2Ev, %function
_ZN13SensorManagerD2Ev:
.LVL45:
.LFB672:
	.loc 6 196 7 is_stmt 1 view -0
	.cfi_startproc
	@ args = 0, pretend = 0, frame = 0
	@ frame_needed = 0, uses_anonymous_args = 0
	@ link register save eliminated.
.LBB1453:
.LBI1453:
	.loc 6 88 7 view .LVU197
.LBB1454:
.LBI1454:
	.loc 6 37 13 view .LVU198
	.loc 6 37 13 is_stmt 0 view .LVU199
.LBE1454:
.LBE1453:
.LBB1455:
.LBI1455:
	.loc 6 48 7 is_stmt 1 view .LVU200
.LBB1456:
.LBI1456:
	.loc 6 37 13 view .LVU201
	.loc 6 37 13 is_stmt 0 view .LVU202
.LBE1456:
.LBE1455:
	.loc 6 196 7 view .LVU203
	@ sp needed
	bx	lr
	.cfi_endproc
.LFE672:
	.size	_ZN13SensorManagerD2Ev, .-_ZN13SensorManagerD2Ev
	.weak	_ZN13SensorManagerD1Ev
	.thumb_set _ZN13SensorManagerD1Ev,_ZN13SensorManagerD2Ev
	.global	__aeabi_idivmod
	.global	__aeabi_uidiv
	.global	__aeabi_idiv
	.text
	.align	1
	.p2align 2,,3
	.global	_Z18step_data_providerPci
	.syntax unified
	.code	16
	.thumb_func
	.type	_Z18step_data_providerPci, %function
_Z18step_data_providerPci:
.LVL46:
.LFB682:
	.file 7 "J:/PROJECT/auroraOS/ui/complications.hpp"
	.loc 7 43 53 is_stmt 1 view -0
	.cfi_startproc
	@ args = 0, pretend = 0, frame = 8
	@ frame_needed = 0, uses_anonymous_args = 0
	.loc 7 47 5 view .LVU205
	.loc 7 47 16 view .LVU206
	.loc 7 48 5 view .LVU207
	.loc 7 48 18 view .LVU208
	.loc 7 49 5 view .LVU209
	.loc 7 49 14 discriminator 1 view .LVU210
	.loc 7 43 53 is_stmt 0 view .LVU211
	push	{r4, r5, r6, r7, lr}
	.cfi_def_cfa_offset 20
	.cfi_offset 4, -20
	.cfi_offset 5, -16
	.cfi_offset 6, -12
	.cfi_offset 7, -8
	.cfi_offset 14, -4
	movs	r6, r0
	.loc 7 48 22 view .LVU212
	movs	r5, #0
	.loc 7 47 20 view .LVU213
	ldr	r4, .L55
	.loc 7 43 53 view .LVU214
	sub	sp, sp, #12
	.cfi_def_cfa_offset 32
.LVL47:
.L51:
	.loc 7 49 21 is_stmt 1 discriminator 2 view .LVU215
	.loc 7 49 31 is_stmt 0 discriminator 2 view .LVU216
	mov	r3, sp
	.loc 7 49 36 discriminator 2 view .LVU217
	movs	r0, r4
	.loc 7 49 31 discriminator 2 view .LVU218
	subs	r3, r3, #1
	.loc 7 49 36 discriminator 2 view .LVU219
	movs	r1, #10
	.loc 7 49 27 discriminator 2 view .LVU220
	adds	r5, r5, #1
.LVL48:
	.loc 7 49 31 discriminator 2 view .LVU221
	adds	r7, r3, r5
	.loc 7 49 36 discriminator 2 view .LVU222
	bl	__aeabi_idivmod
.LVL49:
	.loc 7 49 42 discriminator 2 view .LVU223
	adds	r1, r1, #48
	.loc 7 49 51 discriminator 2 view .LVU224
	movs	r0, r4
	.loc 7 49 31 discriminator 2 view .LVU225
	strb	r1, [r7]
	.loc 7 49 49 is_stmt 1 discriminator 2 view .LVU226
	.loc 7 49 51 is_stmt 0 discriminator 2 view .LVU227
	movs	r1, #10
	bl	__aeabi_idiv
.LVL50:
	movs	r4, r0
.LVL51:
	.loc 7 49 14 is_stmt 1 discriminator 1 view .LVU228
	cmp	r5, #4
	bne	.L51
.LVL52:
	.loc 7 50 15 discriminator 1 view .LVU229
	mov	r3, sp
	adds	r2, r3, #3
	movs	r3, r6
	adds	r0, r6, #4
.LVL53:
.L52:
	.loc 7 50 20 discriminator 2 view .LVU230
	.loc 7 50 33 is_stmt 0 discriminator 2 view .LVU231
	ldrb	r1, [r2]
	.loc 7 50 15 discriminator 1 view .LVU232
	subs	r2, r2, #1
.LVL54:
	.loc 7 50 33 discriminator 2 view .LVU233
	strb	r1, [r3]
	.loc 7 50 15 is_stmt 1 discriminator 1 view .LVU234
	adds	r3, r3, #1
.LVL55:
	.loc 7 50 15 is_stmt 0 discriminator 1 view .LVU235
	cmp	r3, r0
	bne	.L52
	.loc 7 51 5 is_stmt 1 view .LVU236
.LVL56:
	.loc 7 51 18 is_stmt 0 view .LVU237
	movs	r3, #115
	strb	r3, [r6, #4]
	.loc 7 51 25 is_stmt 1 view .LVU238
.LVL57:
	.loc 7 51 38 is_stmt 0 view .LVU239
	adds	r3, r3, #1
	strb	r3, [r6, #5]
	.loc 7 51 45 is_stmt 1 view .LVU240
	.loc 7 51 56 is_stmt 0 view .LVU241
	movs	r3, #0
	strb	r3, [r6, #6]
	.loc 7 52 1 view .LVU242
	add	sp, sp, #12
	@ sp needed
.LVL58:
.LVL59:
	.loc 7 52 1 view .LVU243
	pop	{r4, r5, r6, r7, pc}
.L56:
	.align	2
.L55:
	.word	1234
	.cfi_endproc
.LFE682:
	.size	_Z18step_data_providerPci, .-_Z18step_data_providerPci
	.section	.text._ZN16FlashBlockDevice4openEv,"axG",%progbits,_ZN16FlashBlockDevice4openEv,comdat
	.align	1
	.p2align 2,,3
	.weak	_ZN16FlashBlockDevice4openEv
	.syntax unified
	.code	16
	.thumb_func
	.type	_ZN16FlashBlockDevice4openEv, %function
_ZN16FlashBlockDevice4openEv:
.LVL60:
.LFB716:
	.file 8 "J:/PROJECT/auroraOS/drivers/storage/flash_device.hpp"
	.loc 8 30 9 is_stmt 1 view -0
	.cfi_startproc
	@ args = 0, pretend = 0, frame = 0
	@ frame_needed = 0, uses_anonymous_args = 0
	@ link register save eliminated.
	.loc 8 30 27 view .LVU245
	.loc 8 30 37 is_stmt 0 view .LVU246
	movs	r0, #0
.LVL61:
	.loc 8 30 37 view .LVU247
	@ sp needed
	bx	lr
	.cfi_endproc
.LFE716:
	.size	_ZN16FlashBlockDevice4openEv, .-_ZN16FlashBlockDevice4openEv
	.section	.text._ZN16FlashBlockDevice5closeEv,"axG",%progbits,_ZN16FlashBlockDevice5closeEv,comdat
	.align	1
	.p2align 2,,3
	.weak	_ZN16FlashBlockDevice5closeEv
	.syntax unified
	.code	16
	.thumb_func
	.type	_ZN16FlashBlockDevice5closeEv, %function
_ZN16FlashBlockDevice5closeEv:
.LVL62:
.LFB717:
	.loc 8 31 9 is_stmt 1 view -0
	.cfi_startproc
	@ args = 0, pretend = 0, frame = 0
	@ frame_needed = 0, uses_anonymous_args = 0
	@ link register save eliminated.
	.loc 8 31 28 view .LVU249
	.loc 8 31 38 is_stmt 0 view .LVU250
	movs	r0, #0
.LVL63:
	.loc 8 31 38 view .LVU251
	@ sp needed
	bx	lr
	.cfi_endproc
.LFE717:
	.size	_ZN16FlashBlockDevice5closeEv, .-_ZN16FlashBlockDevice5closeEv
	.section	.text._ZN15LittleFsAdapterD2Ev,"axG",%progbits,_ZN15LittleFsAdapterD5Ev,comdat
	.align	1
	.p2align 2,,3
	.weak	_ZN15LittleFsAdapterD2Ev
	.syntax unified
	.code	16
	.thumb_func
	.type	_ZN15LittleFsAdapterD2Ev, %function
_ZN15LittleFsAdapterD2Ev:
.LVL64:
.LFB758:
	.file 9 "J:/PROJECT/auroraOS/vfs/littlefs_vnode.hpp"
	.loc 9 70 5 is_stmt 1 view -0
	.cfi_startproc
	@ args = 0, pretend = 0, frame = 0
	@ frame_needed = 0, uses_anonymous_args = 0
	@ link register save eliminated.
	.loc 9 72 5 is_stmt 0 view .LVU253
	@ sp needed
	bx	lr
	.cfi_endproc
.LFE758:
	.size	_ZN15LittleFsAdapterD2Ev, .-_ZN15LittleFsAdapterD2Ev
	.weak	_ZN15LittleFsAdapterD1Ev
	.thumb_set _ZN15LittleFsAdapterD1Ev,_ZN15LittleFsAdapterD2Ev
	.section	.text._ZN10UartDevice4openEv,"axG",%progbits,_ZN10UartDevice4openEv,comdat
	.align	1
	.p2align 2,,3
	.weak	_ZN10UartDevice4openEv
	.syntax unified
	.code	16
	.thumb_func
	.type	_ZN10UartDevice4openEv, %function
_ZN10UartDevice4openEv:
.LVL65:
.LFB801:
	.file 10 "J:\\PROJECT\\auroraOS\\kernel/uart_device.hpp"
	.loc 10 18 9 is_stmt 1 view -0
	.cfi_startproc
	@ args = 0, pretend = 0, frame = 0
	@ frame_needed = 0, uses_anonymous_args = 0
	@ link register save eliminated.
	.loc 10 20 9 view .LVU255
	.loc 10 21 5 is_stmt 0 view .LVU256
	movs	r0, #0
.LVL66:
	.loc 10 21 5 view .LVU257
	@ sp needed
	bx	lr
	.cfi_endproc
.LFE801:
	.size	_ZN10UartDevice4openEv, .-_ZN10UartDevice4openEv
	.section	.text._ZN10UartDevice5closeEv,"axG",%progbits,_ZN10UartDevice5closeEv,comdat
	.align	1
	.p2align 2,,3
	.weak	_ZN10UartDevice5closeEv
	.syntax unified
	.code	16
	.thumb_func
	.type	_ZN10UartDevice5closeEv, %function
_ZN10UartDevice5closeEv:
.LVL67:
.LFB802:
	.loc 10 23 9 is_stmt 1 view -0
	.cfi_startproc
	@ args = 0, pretend = 0, frame = 0
	@ frame_needed = 0, uses_anonymous_args = 0
	@ link register save eliminated.
	.loc 10 24 9 view .LVU259
	.loc 10 25 5 is_stmt 0 view .LVU260
	movs	r0, #0
.LVL68:
	.loc 10 25 5 view .LVU261
	@ sp needed
	bx	lr
	.cfi_endproc
.LFE802:
	.size	_ZN10UartDevice5closeEv, .-_ZN10UartDevice5closeEv
	.section	.text._ZN8ProcNode5writeEPKciiPv,"axG",%progbits,_ZN8ProcNode5writeEPKciiPv,comdat
	.align	1
	.p2align 2,,3
	.weak	_ZN8ProcNode5writeEPKciiPv
	.syntax unified
	.code	16
	.thumb_func
	.type	_ZN8ProcNode5writeEPKciiPv, %function
_ZN8ProcNode5writeEPKciiPv:
.LVL69:
.LFB806:
	.file 11 "J:\\PROJECT\\auroraOS\\vfs/procfs.hpp"
	.loc 11 12 9 is_stmt 1 view -0
	.cfi_startproc
	@ args = 4, pretend = 0, frame = 0
	@ frame_needed = 0, uses_anonymous_args = 0
	@ link register save eliminated.
	.loc 11 12 76 view .LVU263
	.loc 11 12 84 is_stmt 0 discriminator 1 view .LVU264
	movs	r0, #1
.LVL70:
	.loc 11 12 87 view .LVU265
	@ sp needed
	rsbs	r0, r0, #0
	bx	lr
	.cfi_endproc
.LFE806:
	.size	_ZN8ProcNode5writeEPKciiPv, .-_ZN8ProcNode5writeEPKciiPv
	.section	.text._ZN17MockBatteryDriver4initEv,"axG",%progbits,_ZN17MockBatteryDriver4initEv,comdat
	.align	1
	.p2align 2,,3
	.weak	_ZN17MockBatteryDriver4initEv
	.syntax unified
	.code	16
	.thumb_func
	.type	_ZN17MockBatteryDriver4initEv, %function
_ZN17MockBatteryDriver4initEv:
.LVL71:
.LFB835:
	.file 12 "J:/PROJECT/auroraOS/drivers/power/charging_manager.hpp"
	.loc 12 39 10 is_stmt 1 view -0
	.cfi_startproc
	@ args = 0, pretend = 0, frame = 0
	@ frame_needed = 0, uses_anonymous_args = 0
	@ link register save eliminated.
	.loc 12 39 28 view .LVU267
	.loc 12 39 41 is_stmt 0 view .LVU268
	movs	r0, #1
.LVL72:
	.loc 12 39 41 view .LVU269
	@ sp needed
	bx	lr
	.cfi_endproc
.LFE835:
	.size	_ZN17MockBatteryDriver4initEv, .-_ZN17MockBatteryDriver4initEv
	.section	.text._ZN17MockBatteryDriver15read_voltage_mvEv,"axG",%progbits,_ZN17MockBatteryDriver15read_voltage_mvEv,comdat
	.align	1
	.p2align 2,,3
	.weak	_ZN17MockBatteryDriver15read_voltage_mvEv
	.syntax unified
	.code	16
	.thumb_func
	.type	_ZN17MockBatteryDriver15read_voltage_mvEv, %function
_ZN17MockBatteryDriver15read_voltage_mvEv:
.LVL73:
.LFB836:
	.loc 12 40 14 is_stmt 1 view -0
	.cfi_startproc
	@ args = 0, pretend = 0, frame = 0
	@ frame_needed = 0, uses_anonymous_args = 0
	@ link register save eliminated.
	.loc 12 40 43 view .LVU271
	.loc 12 40 50 is_stmt 0 discriminator 1 view .LVU272
	ldrh	r0, [r0, #4]
.LVL74:
	.loc 12 40 63 view .LVU273
	@ sp needed
	bx	lr
	.cfi_endproc
.LFE836:
	.size	_ZN17MockBatteryDriver15read_voltage_mvEv, .-_ZN17MockBatteryDriver15read_voltage_mvEv
	.section	.text._ZN17MockBatteryDriver15is_vbus_pluggedEv,"axG",%progbits,_ZN17MockBatteryDriver15is_vbus_pluggedEv,comdat
	.align	1
	.p2align 2,,3
	.weak	_ZN17MockBatteryDriver15is_vbus_pluggedEv
	.syntax unified
	.code	16
	.thumb_func
	.type	_ZN17MockBatteryDriver15is_vbus_pluggedEv, %function
_ZN17MockBatteryDriver15is_vbus_pluggedEv:
.LVL75:
.LFB837:
	.loc 12 41 10 is_stmt 1 view -0
	.cfi_startproc
	@ args = 0, pretend = 0, frame = 0
	@ frame_needed = 0, uses_anonymous_args = 0
	@ link register save eliminated.
	.loc 12 41 39 view .LVU275
	.loc 12 41 46 is_stmt 0 discriminator 1 view .LVU276
	ldrb	r0, [r0, #6]
.LVL76:
	.loc 12 41 61 view .LVU277
	@ sp needed
	bx	lr
	.cfi_endproc
.LFE837:
	.size	_ZN17MockBatteryDriver15is_vbus_pluggedEv, .-_ZN17MockBatteryDriver15is_vbus_pluggedEv
	.section	.text._ZN17MockBatteryDriver16get_charge_stateEv,"axG",%progbits,_ZN17MockBatteryDriver16get_charge_stateEv,comdat
	.align	1
	.p2align 2,,3
	.weak	_ZN17MockBatteryDriver16get_charge_stateEv
	.syntax unified
	.code	16
	.thumb_func
	.type	_ZN17MockBatteryDriver16get_charge_stateEv, %function
_ZN17MockBatteryDriver16get_charge_stateEv:
.LVL77:
.LFB838:
	.loc 12 42 17 is_stmt 1 view -0
	.cfi_startproc
	@ args = 0, pretend = 0, frame = 0
	@ frame_needed = 0, uses_anonymous_args = 0
	@ link register save eliminated.
	.loc 12 42 47 view .LVU279
	.loc 12 42 54 is_stmt 0 discriminator 1 view .LVU280
	ldrb	r0, [r0, #7]
.LVL78:
	.loc 12 42 62 view .LVU281
	@ sp needed
	bx	lr
	.cfi_endproc
.LFE838:
	.size	_ZN17MockBatteryDriver16get_charge_stateEv, .-_ZN17MockBatteryDriver16get_charge_stateEv
	.section	.text._ZN17MockBatteryDriverD2Ev,"axG",%progbits,_ZN17MockBatteryDriverD5Ev,comdat
	.align	1
	.p2align 2,,3
	.weak	_ZN17MockBatteryDriverD2Ev
	.syntax unified
	.code	16
	.thumb_func
	.type	_ZN17MockBatteryDriverD2Ev, %function
_ZN17MockBatteryDriverD2Ev:
.LVL79:
.LFB844:
	.loc 12 30 7 is_stmt 1 view -0
	.cfi_startproc
	@ args = 0, pretend = 0, frame = 0
	@ frame_needed = 0, uses_anonymous_args = 0
	@ link register save eliminated.
.LBB1457:
.LBI1457:
	.loc 12 20 13 view .LVU283
	.loc 12 20 13 is_stmt 0 view .LVU284
.LBE1457:
	.loc 12 30 7 view .LVU285
	@ sp needed
	bx	lr
	.cfi_endproc
.LFE844:
	.size	_ZN17MockBatteryDriverD2Ev, .-_ZN17MockBatteryDriverD2Ev
	.weak	_ZN17MockBatteryDriverD1Ev
	.thumb_set _ZN17MockBatteryDriverD1Ev,_ZN17MockBatteryDriverD2Ev
	.section	.text._ZN15ChargingManagerD2Ev,"axG",%progbits,_ZN15ChargingManagerD5Ev,comdat
	.align	1
	.p2align 2,,3
	.weak	_ZN15ChargingManagerD2Ev
	.syntax unified
	.code	16
	.thumb_func
	.type	_ZN15ChargingManagerD2Ev, %function
_ZN15ChargingManagerD2Ev:
.LVL80:
.LFB853:
	.loc 12 60 7 is_stmt 1 view -0
	.cfi_startproc
	@ args = 0, pretend = 0, frame = 0
	@ frame_needed = 0, uses_anonymous_args = 0
	@ link register save eliminated.
.LBB1458:
.LBI1458:
	.loc 12 30 7 view .LVU287
.LBB1459:
.LBI1459:
	.loc 12 20 13 view .LVU288
	.loc 12 20 13 is_stmt 0 view .LVU289
.LBE1459:
.LBE1458:
	.loc 12 60 7 view .LVU290
	@ sp needed
	bx	lr
	.cfi_endproc
.LFE853:
	.size	_ZN15ChargingManagerD2Ev, .-_ZN15ChargingManagerD2Ev
	.weak	_ZN15ChargingManagerD1Ev
	.thumb_set _ZN15ChargingManagerD1Ev,_ZN15ChargingManagerD2Ev
	.section	.text._ZN11MemInfoNodeD2Ev,"axG",%progbits,_ZN11MemInfoNodeD5Ev,comdat
	.align	1
	.p2align 2,,3
	.weak	_ZN11MemInfoNodeD2Ev
	.syntax unified
	.code	16
	.thumb_func
	.type	_ZN11MemInfoNodeD2Ev, %function
_ZN11MemInfoNodeD2Ev:
.LVL81:
.LFB930:
	.loc 11 18 7 is_stmt 1 view -0
	.cfi_startproc
	@ args = 0, pretend = 0, frame = 0
	@ frame_needed = 0, uses_anonymous_args = 0
	@ link register save eliminated.
.LBB1460:
.LBI1460:
	.loc 11 10 7 view .LVU292
.LBB1461:
.LBI1461:
	.loc 2 8 13 view .LVU293
	.loc 2 8 13 is_stmt 0 view .LVU294
.LBE1461:
.LBE1460:
	.loc 11 18 7 view .LVU295
	@ sp needed
	bx	lr
	.cfi_endproc
.LFE930:
	.size	_ZN11MemInfoNodeD2Ev, .-_ZN11MemInfoNodeD2Ev
	.weak	_ZN11MemInfoNodeD1Ev
	.thumb_set _ZN11MemInfoNodeD1Ev,_ZN11MemInfoNodeD2Ev
	.section	.text._ZN12TaskInfoNodeD2Ev,"axG",%progbits,_ZN12TaskInfoNodeD5Ev,comdat
	.align	1
	.p2align 2,,3
	.weak	_ZN12TaskInfoNodeD2Ev
	.syntax unified
	.code	16
	.thumb_func
	.type	_ZN12TaskInfoNodeD2Ev, %function
_ZN12TaskInfoNodeD2Ev:
.LVL82:
.LFB937:
	.loc 11 53 7 is_stmt 1 view -0
	.cfi_startproc
	@ args = 0, pretend = 0, frame = 0
	@ frame_needed = 0, uses_anonymous_args = 0
	@ link register save eliminated.
.LBB1462:
.LBI1462:
	.loc 11 10 7 view .LVU297
.LBB1463:
.LBI1463:
	.loc 2 8 13 view .LVU298
	.loc 2 8 13 is_stmt 0 view .LVU299
.LBE1463:
.LBE1462:
	.loc 11 53 7 view .LVU300
	@ sp needed
	bx	lr
	.cfi_endproc
.LFE937:
	.size	_ZN12TaskInfoNodeD2Ev, .-_ZN12TaskInfoNodeD2Ev
	.weak	_ZN12TaskInfoNodeD1Ev
	.thumb_set _ZN12TaskInfoNodeD1Ev,_ZN12TaskInfoNodeD2Ev
	.section	.text._ZN11LatencyNodeD2Ev,"axG",%progbits,_ZN11LatencyNodeD5Ev,comdat
	.align	1
	.p2align 2,,3
	.weak	_ZN11LatencyNodeD2Ev
	.syntax unified
	.code	16
	.thumb_func
	.type	_ZN11LatencyNodeD2Ev, %function
_ZN11LatencyNodeD2Ev:
.LVL83:
.LFB944:
	.loc 11 103 7 is_stmt 1 view -0
	.cfi_startproc
	@ args = 0, pretend = 0, frame = 0
	@ frame_needed = 0, uses_anonymous_args = 0
	@ link register save eliminated.
.LBB1464:
.LBI1464:
	.loc 11 10 7 view .LVU302
.LBB1465:
.LBI1465:
	.loc 2 8 13 view .LVU303
	.loc 2 8 13 is_stmt 0 view .LVU304
.LBE1465:
.LBE1464:
	.loc 11 103 7 view .LVU305
	@ sp needed
	bx	lr
	.cfi_endproc
.LFE944:
	.size	_ZN11LatencyNodeD2Ev, .-_ZN11LatencyNodeD2Ev
	.weak	_ZN11LatencyNodeD1Ev
	.thumb_set _ZN11LatencyNodeD1Ev,_ZN11LatencyNodeD2Ev
	.section	.text._ZN9PowerNodeD2Ev,"axG",%progbits,_ZN9PowerNodeD5Ev,comdat
	.align	1
	.p2align 2,,3
	.weak	_ZN9PowerNodeD2Ev
	.syntax unified
	.code	16
	.thumb_func
	.type	_ZN9PowerNodeD2Ev, %function
_ZN9PowerNodeD2Ev:
.LVL84:
.LFB951:
	.loc 11 139 7 is_stmt 1 view -0
	.cfi_startproc
	@ args = 0, pretend = 0, frame = 0
	@ frame_needed = 0, uses_anonymous_args = 0
	@ link register save eliminated.
.LBB1466:
.LBI1466:
	.loc 11 10 7 view .LVU307
.LBB1467:
.LBI1467:
	.loc 2 8 13 view .LVU308
	.loc 2 8 13 is_stmt 0 view .LVU309
.LBE1467:
.LBE1466:
	.loc 11 139 7 view .LVU310
	@ sp needed
	bx	lr
	.cfi_endproc
.LFE951:
	.size	_ZN9PowerNodeD2Ev, .-_ZN9PowerNodeD2Ev
	.weak	_ZN9PowerNodeD1Ev
	.thumb_set _ZN9PowerNodeD1Ev,_ZN9PowerNodeD2Ev
	.section	.text._ZN7NetNodeD2Ev,"axG",%progbits,_ZN7NetNodeD5Ev,comdat
	.align	1
	.p2align 2,,3
	.weak	_ZN7NetNodeD2Ev
	.syntax unified
	.code	16
	.thumb_func
	.type	_ZN7NetNodeD2Ev, %function
_ZN7NetNodeD2Ev:
.LVL85:
.LFB958:
	.loc 11 168 7 is_stmt 1 view -0
	.cfi_startproc
	@ args = 0, pretend = 0, frame = 0
	@ frame_needed = 0, uses_anonymous_args = 0
	@ link register save eliminated.
.LBB1468:
.LBI1468:
	.loc 11 10 7 view .LVU312
.LBB1469:
.LBI1469:
	.loc 2 8 13 view .LVU313
	.loc 2 8 13 is_stmt 0 view .LVU314
.LBE1469:
.LBE1468:
	.loc 11 168 7 view .LVU315
	@ sp needed
	bx	lr
	.cfi_endproc
.LFE958:
	.size	_ZN7NetNodeD2Ev, .-_ZN7NetNodeD2Ev
	.weak	_ZN7NetNodeD1Ev
	.thumb_set _ZN7NetNodeD1Ev,_ZN7NetNodeD2Ev
	.section	.text._ZN11SoftbusNodeD2Ev,"axG",%progbits,_ZN11SoftbusNodeD5Ev,comdat
	.align	1
	.p2align 2,,3
	.weak	_ZN11SoftbusNodeD2Ev
	.syntax unified
	.code	16
	.thumb_func
	.type	_ZN11SoftbusNodeD2Ev, %function
_ZN11SoftbusNodeD2Ev:
.LVL86:
.LFB965:
	.loc 11 190 7 is_stmt 1 view -0
	.cfi_startproc
	@ args = 0, pretend = 0, frame = 0
	@ frame_needed = 0, uses_anonymous_args = 0
	@ link register save eliminated.
.LBB1470:
.LBI1470:
	.loc 11 10 7 view .LVU317
.LBB1471:
.LBI1471:
	.loc 2 8 13 view .LVU318
	.loc 2 8 13 is_stmt 0 view .LVU319
.LBE1471:
.LBE1470:
	.loc 11 190 7 view .LVU320
	@ sp needed
	bx	lr
	.cfi_endproc
.LFE965:
	.size	_ZN11SoftbusNodeD2Ev, .-_ZN11SoftbusNodeD2Ev
	.weak	_ZN11SoftbusNodeD1Ev
	.thumb_set _ZN11SoftbusNodeD1Ev,_ZN11SoftbusNodeD2Ev
	.section	.text._ZN13LittleFsVNodeD2Ev,"axG",%progbits,_ZN13LittleFsVNodeD5Ev,comdat
	.align	1
	.p2align 2,,3
	.weak	_ZN13LittleFsVNodeD2Ev
	.syntax unified
	.code	16
	.thumb_func
	.type	_ZN13LittleFsVNodeD2Ev, %function
_ZN13LittleFsVNodeD2Ev:
.LVL87:
.LFB1041:
	.loc 9 90 7 is_stmt 1 view -0
	.cfi_startproc
	@ args = 0, pretend = 0, frame = 0
	@ frame_needed = 0, uses_anonymous_args = 0
	@ link register save eliminated.
.LBB1472:
.LBI1472:
	.loc 2 8 13 view .LVU322
	.loc 2 8 13 is_stmt 0 view .LVU323
.LBE1472:
	.loc 9 90 7 view .LVU324
	@ sp needed
	bx	lr
	.cfi_endproc
.LFE1041:
	.size	_ZN13LittleFsVNodeD2Ev, .-_ZN13LittleFsVNodeD2Ev
	.weak	_ZN13LittleFsVNodeD1Ev
	.thumb_set _ZN13LittleFsVNodeD1Ev,_ZN13LittleFsVNodeD2Ev
	.section	.rodata.str1.4,"aMS",%progbits,1
	.align	2
.LC2:
	.ascii	"/dev/uart0\000"
	.align	2
.LC4:
	.ascii	"\015\012[Timer Callback] Software Timer Triggered a"
	.ascii	"synchronously!\015\012\000"
	.text
	.align	1
	.p2align 2,,3
	.global	_Z17my_timer_callbackPv
	.syntax unified
	.code	16
	.thumb_func
	.type	_Z17my_timer_callbackPv, %function
_Z17my_timer_callbackPv:
.LVL88:
.LFB893:
	.loc 1 171 35 is_stmt 1 view -0
	.cfi_startproc
	@ args = 0, pretend = 0, frame = 0
	@ frame_needed = 0, uses_anonymous_args = 0
	.loc 1 172 5 view .LVU326
	.loc 1 171 35 is_stmt 0 view .LVU327
	push	{r4, lr}
	.cfi_def_cfa_offset 8
	.cfi_offset 4, -8
	.cfi_offset 14, -4
	.loc 1 172 18 view .LVU328
	movs	r1, #0
	ldr	r0, .L78
.LVL89:
	.loc 1 172 18 view .LVU329
	bl	open
.LVL90:
	subs	r4, r0, #0
.LVL91:
	.loc 1 173 5 is_stmt 1 view .LVU330
	blt	.L76
	.loc 1 174 9 view .LVU331
	.loc 1 174 14 is_stmt 0 view .LVU332
	movs	r2, #61
	ldr	r1, .L78+4
	bl	write
.LVL92:
	.loc 1 175 9 is_stmt 1 view .LVU333
	.loc 1 175 14 is_stmt 0 view .LVU334
	movs	r0, r4
	bl	close
.LVL93:
.L76:
	.loc 1 177 1 view .LVU335
	@ sp needed
.LVL94:
	.loc 1 177 1 view .LVU336
	pop	{r4, pc}
.L79:
	.align	2
.L78:
	.word	.LC2
	.word	.LC4
	.cfi_endproc
.LFE893:
	.size	_Z17my_timer_callbackPv, .-_Z17my_timer_callbackPv
	.section	.text._ZN11SoftbusNodeD0Ev,"axG",%progbits,_ZN11SoftbusNodeD5Ev,comdat
	.align	1
	.p2align 2,,3
	.weak	_ZN11SoftbusNodeD0Ev
	.syntax unified
	.code	16
	.thumb_func
	.type	_ZN11SoftbusNodeD0Ev, %function
_ZN11SoftbusNodeD0Ev:
.LVL95:
.LFB967:
	.loc 11 190 7 is_stmt 1 view -0
	.cfi_startproc
	@ args = 0, pretend = 0, frame = 0
	@ frame_needed = 0, uses_anonymous_args = 0
	.loc 11 190 7 is_stmt 0 view .LVU338
	push	{r4, lr}
	.cfi_def_cfa_offset 8
	.cfi_offset 4, -8
	.cfi_offset 14, -4
	.loc 11 190 7 view .LVU339
	movs	r4, r0
.LVL96:
.LBB1473:
.LBI1473:
	.loc 11 190 7 is_stmt 1 view .LVU340
.LBB1474:
.LBI1474:
	.loc 11 10 7 view .LVU341
.LBB1475:
.LBI1475:
	.loc 2 8 13 view .LVU342
	.loc 2 8 13 is_stmt 0 view .LVU343
.LBE1475:
.LBE1474:
.LBE1473:
	.loc 11 190 7 view .LVU344
	@ sp needed
	.loc 11 190 7 discriminator 1 view .LVU345
	movs	r1, #4
	bl	_ZdlPvj
.LVL97:
	.loc 11 190 7 view .LVU346
	movs	r0, r4
.LVL98:
	.loc 11 190 7 view .LVU347
	pop	{r4, pc}
	.cfi_endproc
.LFE967:
	.size	_ZN11SoftbusNodeD0Ev, .-_ZN11SoftbusNodeD0Ev
	.section	.text._ZN7NetNodeD0Ev,"axG",%progbits,_ZN7NetNodeD5Ev,comdat
	.align	1
	.p2align 2,,3
	.weak	_ZN7NetNodeD0Ev
	.syntax unified
	.code	16
	.thumb_func
	.type	_ZN7NetNodeD0Ev, %function
_ZN7NetNodeD0Ev:
.LVL99:
.LFB960:
	.loc 11 168 7 is_stmt 1 view -0
	.cfi_startproc
	@ args = 0, pretend = 0, frame = 0
	@ frame_needed = 0, uses_anonymous_args = 0
	.loc 11 168 7 is_stmt 0 view .LVU349
	push	{r4, lr}
	.cfi_def_cfa_offset 8
	.cfi_offset 4, -8
	.cfi_offset 14, -4
	.loc 11 168 7 view .LVU350
	movs	r4, r0
.LVL100:
.LBB1476:
.LBI1476:
	.loc 11 168 7 is_stmt 1 view .LVU351
.LBB1477:
.LBI1477:
	.loc 11 10 7 view .LVU352
.LBB1478:
.LBI1478:
	.loc 2 8 13 view .LVU353
	.loc 2 8 13 is_stmt 0 view .LVU354
.LBE1478:
.LBE1477:
.LBE1476:
	.loc 11 168 7 view .LVU355
	@ sp needed
	.loc 11 168 7 discriminator 1 view .LVU356
	movs	r1, #4
	bl	_ZdlPvj
.LVL101:
	.loc 11 168 7 view .LVU357
	movs	r0, r4
.LVL102:
	.loc 11 168 7 view .LVU358
	pop	{r4, pc}
	.cfi_endproc
.LFE960:
	.size	_ZN7NetNodeD0Ev, .-_ZN7NetNodeD0Ev
	.section	.text._ZN9PowerNodeD0Ev,"axG",%progbits,_ZN9PowerNodeD5Ev,comdat
	.align	1
	.p2align 2,,3
	.weak	_ZN9PowerNodeD0Ev
	.syntax unified
	.code	16
	.thumb_func
	.type	_ZN9PowerNodeD0Ev, %function
_ZN9PowerNodeD0Ev:
.LVL103:
.LFB953:
	.loc 11 139 7 is_stmt 1 view -0
	.cfi_startproc
	@ args = 0, pretend = 0, frame = 0
	@ frame_needed = 0, uses_anonymous_args = 0
	.loc 11 139 7 is_stmt 0 view .LVU360
	push	{r4, lr}
	.cfi_def_cfa_offset 8
	.cfi_offset 4, -8
	.cfi_offset 14, -4
	.loc 11 139 7 view .LVU361
	movs	r4, r0
.LVL104:
.LBB1479:
.LBI1479:
	.loc 11 139 7 is_stmt 1 view .LVU362
.LBB1480:
.LBI1480:
	.loc 11 10 7 view .LVU363
.LBB1481:
.LBI1481:
	.loc 2 8 13 view .LVU364
	.loc 2 8 13 is_stmt 0 view .LVU365
.LBE1481:
.LBE1480:
.LBE1479:
	.loc 11 139 7 view .LVU366
	@ sp needed
	.loc 11 139 7 discriminator 1 view .LVU367
	movs	r1, #4
	bl	_ZdlPvj
.LVL105:
	.loc 11 139 7 view .LVU368
	movs	r0, r4
.LVL106:
	.loc 11 139 7 view .LVU369
	pop	{r4, pc}
	.cfi_endproc
.LFE953:
	.size	_ZN9PowerNodeD0Ev, .-_ZN9PowerNodeD0Ev
	.section	.text._ZN11LatencyNodeD0Ev,"axG",%progbits,_ZN11LatencyNodeD5Ev,comdat
	.align	1
	.p2align 2,,3
	.weak	_ZN11LatencyNodeD0Ev
	.syntax unified
	.code	16
	.thumb_func
	.type	_ZN11LatencyNodeD0Ev, %function
_ZN11LatencyNodeD0Ev:
.LVL107:
.LFB946:
	.loc 11 103 7 is_stmt 1 view -0
	.cfi_startproc
	@ args = 0, pretend = 0, frame = 0
	@ frame_needed = 0, uses_anonymous_args = 0
	.loc 11 103 7 is_stmt 0 view .LVU371
	push	{r4, lr}
	.cfi_def_cfa_offset 8
	.cfi_offset 4, -8
	.cfi_offset 14, -4
	.loc 11 103 7 view .LVU372
	movs	r4, r0
.LVL108:
.LBB1482:
.LBI1482:
	.loc 11 103 7 is_stmt 1 view .LVU373
.LBB1483:
.LBI1483:
	.loc 11 10 7 view .LVU374
.LBB1484:
.LBI1484:
	.loc 2 8 13 view .LVU375
	.loc 2 8 13 is_stmt 0 view .LVU376
.LBE1484:
.LBE1483:
.LBE1482:
	.loc 11 103 7 view .LVU377
	@ sp needed
	.loc 11 103 7 discriminator 1 view .LVU378
	movs	r1, #4
	bl	_ZdlPvj
.LVL109:
	.loc 11 103 7 view .LVU379
	movs	r0, r4
.LVL110:
	.loc 11 103 7 view .LVU380
	pop	{r4, pc}
	.cfi_endproc
.LFE946:
	.size	_ZN11LatencyNodeD0Ev, .-_ZN11LatencyNodeD0Ev
	.section	.text._ZN12TaskInfoNodeD0Ev,"axG",%progbits,_ZN12TaskInfoNodeD5Ev,comdat
	.align	1
	.p2align 2,,3
	.weak	_ZN12TaskInfoNodeD0Ev
	.syntax unified
	.code	16
	.thumb_func
	.type	_ZN12TaskInfoNodeD0Ev, %function
_ZN12TaskInfoNodeD0Ev:
.LVL111:
.LFB939:
	.loc 11 53 7 is_stmt 1 view -0
	.cfi_startproc
	@ args = 0, pretend = 0, frame = 0
	@ frame_needed = 0, uses_anonymous_args = 0
	.loc 11 53 7 is_stmt 0 view .LVU382
	push	{r4, lr}
	.cfi_def_cfa_offset 8
	.cfi_offset 4, -8
	.cfi_offset 14, -4
	.loc 11 53 7 view .LVU383
	movs	r4, r0
.LVL112:
.LBB1485:
.LBI1485:
	.loc 11 53 7 is_stmt 1 view .LVU384
.LBB1486:
.LBI1486:
	.loc 11 10 7 view .LVU385
.LBB1487:
.LBI1487:
	.loc 2 8 13 view .LVU386
	.loc 2 8 13 is_stmt 0 view .LVU387
.LBE1487:
.LBE1486:
.LBE1485:
	.loc 11 53 7 view .LVU388
	@ sp needed
	.loc 11 53 7 discriminator 1 view .LVU389
	movs	r1, #4
	bl	_ZdlPvj
.LVL113:
	.loc 11 53 7 view .LVU390
	movs	r0, r4
.LVL114:
	.loc 11 53 7 view .LVU391
	pop	{r4, pc}
	.cfi_endproc
.LFE939:
	.size	_ZN12TaskInfoNodeD0Ev, .-_ZN12TaskInfoNodeD0Ev
	.section	.text._ZN11MemInfoNodeD0Ev,"axG",%progbits,_ZN11MemInfoNodeD5Ev,comdat
	.align	1
	.p2align 2,,3
	.weak	_ZN11MemInfoNodeD0Ev
	.syntax unified
	.code	16
	.thumb_func
	.type	_ZN11MemInfoNodeD0Ev, %function
_ZN11MemInfoNodeD0Ev:
.LVL115:
.LFB932:
	.loc 11 18 7 is_stmt 1 view -0
	.cfi_startproc
	@ args = 0, pretend = 0, frame = 0
	@ frame_needed = 0, uses_anonymous_args = 0
	.loc 11 18 7 is_stmt 0 view .LVU393
	push	{r4, lr}
	.cfi_def_cfa_offset 8
	.cfi_offset 4, -8
	.cfi_offset 14, -4
	.loc 11 18 7 view .LVU394
	movs	r4, r0
.LVL116:
.LBB1488:
.LBI1488:
	.loc 11 18 7 is_stmt 1 view .LVU395
.LBB1489:
.LBI1489:
	.loc 11 10 7 view .LVU396
.LBB1490:
.LBI1490:
	.loc 2 8 13 view .LVU397
	.loc 2 8 13 is_stmt 0 view .LVU398
.LBE1490:
.LBE1489:
.LBE1488:
	.loc 11 18 7 view .LVU399
	@ sp needed
	.loc 11 18 7 discriminator 1 view .LVU400
	movs	r1, #4
	bl	_ZdlPvj
.LVL117:
	.loc 11 18 7 view .LVU401
	movs	r0, r4
.LVL118:
	.loc 11 18 7 view .LVU402
	pop	{r4, pc}
	.cfi_endproc
.LFE932:
	.size	_ZN11MemInfoNodeD0Ev, .-_ZN11MemInfoNodeD0Ev
	.section	.text._ZN13LittleFsVNodeD0Ev,"axG",%progbits,_ZN13LittleFsVNodeD5Ev,comdat
	.align	1
	.p2align 2,,3
	.weak	_ZN13LittleFsVNodeD0Ev
	.syntax unified
	.code	16
	.thumb_func
	.type	_ZN13LittleFsVNodeD0Ev, %function
_ZN13LittleFsVNodeD0Ev:
.LVL119:
.LFB1043:
	.loc 9 90 7 is_stmt 1 view -0
	.cfi_startproc
	@ args = 0, pretend = 0, frame = 0
	@ frame_needed = 0, uses_anonymous_args = 0
	.loc 9 90 7 is_stmt 0 view .LVU404
	push	{r4, lr}
	.cfi_def_cfa_offset 8
	.cfi_offset 4, -8
	.cfi_offset 14, -4
	.loc 9 90 7 view .LVU405
	movs	r4, r0
.LVL120:
.LBB1491:
.LBI1491:
	.loc 9 90 7 is_stmt 1 view .LVU406
.LBB1492:
.LBI1492:
	.loc 2 8 13 view .LVU407
	.loc 2 8 13 is_stmt 0 view .LVU408
.LBE1492:
.LBE1491:
	.loc 9 90 7 view .LVU409
	@ sp needed
	.loc 9 90 7 discriminator 1 view .LVU410
	movs	r1, #8
	bl	_ZdlPvj
.LVL121:
	.loc 9 90 7 view .LVU411
	movs	r0, r4
.LVL122:
	.loc 9 90 7 view .LVU412
	pop	{r4, pc}
	.cfi_endproc
.LFE1043:
	.size	_ZN13LittleFsVNodeD0Ev, .-_ZN13LittleFsVNodeD0Ev
	.section	.text._ZN19AccelerometerSensorD0Ev,"axG",%progbits,_ZN19AccelerometerSensorD5Ev,comdat
	.align	1
	.p2align 2,,3
	.weak	_ZN19AccelerometerSensorD0Ev
	.syntax unified
	.code	16
	.thumb_func
	.type	_ZN19AccelerometerSensorD0Ev, %function
_ZN19AccelerometerSensorD0Ev:
.LVL123:
.LFB664:
	.loc 6 88 7 is_stmt 1 view -0
	.cfi_startproc
	@ args = 0, pretend = 0, frame = 0
	@ frame_needed = 0, uses_anonymous_args = 0
	.loc 6 88 7 is_stmt 0 view .LVU414
	push	{r4, lr}
	.cfi_def_cfa_offset 8
	.cfi_offset 4, -8
	.cfi_offset 14, -4
	.loc 6 88 7 view .LVU415
	movs	r4, r0
.LVL124:
.LBB1493:
.LBI1493:
	.loc 6 88 7 is_stmt 1 view .LVU416
.LBB1494:
.LBI1494:
	.loc 6 37 13 view .LVU417
	.loc 6 37 13 is_stmt 0 view .LVU418
.LBE1494:
.LBE1493:
	.loc 6 88 7 view .LVU419
	@ sp needed
	.loc 6 88 7 discriminator 1 view .LVU420
	movs	r1, #36
	bl	_ZdlPvj
.LVL125:
	.loc 6 88 7 view .LVU421
	movs	r0, r4
.LVL126:
	.loc 6 88 7 view .LVU422
	pop	{r4, pc}
	.cfi_endproc
.LFE664:
	.size	_ZN19AccelerometerSensorD0Ev, .-_ZN19AccelerometerSensorD0Ev
	.section	.text._ZN15HeartRateSensorD0Ev,"axG",%progbits,_ZN15HeartRateSensorD5Ev,comdat
	.align	1
	.p2align 2,,3
	.weak	_ZN15HeartRateSensorD0Ev
	.syntax unified
	.code	16
	.thumb_func
	.type	_ZN15HeartRateSensorD0Ev, %function
_ZN15HeartRateSensorD0Ev:
.LVL127:
.LFB660:
	.loc 6 48 7 is_stmt 1 view -0
	.cfi_startproc
	@ args = 0, pretend = 0, frame = 0
	@ frame_needed = 0, uses_anonymous_args = 0
	.loc 6 48 7 is_stmt 0 view .LVU424
	push	{r4, lr}
	.cfi_def_cfa_offset 8
	.cfi_offset 4, -8
	.cfi_offset 14, -4
	.loc 6 48 7 view .LVU425
	movs	r4, r0
.LVL128:
.LBB1495:
.LBI1495:
	.loc 6 48 7 is_stmt 1 view .LVU426
.LBB1496:
.LBI1496:
	.loc 6 37 13 view .LVU427
	.loc 6 37 13 is_stmt 0 view .LVU428
.LBE1496:
.LBE1495:
	.loc 6 48 7 view .LVU429
	@ sp needed
	.loc 6 48 7 discriminator 1 view .LVU430
	movs	r1, #12
	bl	_ZdlPvj
.LVL129:
	.loc 6 48 7 view .LVU431
	movs	r0, r4
.LVL130:
	.loc 6 48 7 view .LVU432
	pop	{r4, pc}
	.cfi_endproc
.LFE660:
	.size	_ZN15HeartRateSensorD0Ev, .-_ZN15HeartRateSensorD0Ev
	.section	.text._ZN17MockBatteryDriverD0Ev,"axG",%progbits,_ZN17MockBatteryDriverD5Ev,comdat
	.align	1
	.p2align 2,,3
	.weak	_ZN17MockBatteryDriverD0Ev
	.syntax unified
	.code	16
	.thumb_func
	.type	_ZN17MockBatteryDriverD0Ev, %function
_ZN17MockBatteryDriverD0Ev:
.LVL131:
.LFB846:
	.loc 12 30 7 is_stmt 1 view -0
	.cfi_startproc
	@ args = 0, pretend = 0, frame = 0
	@ frame_needed = 0, uses_anonymous_args = 0
	.loc 12 30 7 is_stmt 0 view .LVU434
	push	{r4, lr}
	.cfi_def_cfa_offset 8
	.cfi_offset 4, -8
	.cfi_offset 14, -4
	.loc 12 30 7 view .LVU435
	movs	r4, r0
.LVL132:
.LBB1497:
.LBI1497:
	.loc 12 30 7 is_stmt 1 view .LVU436
.LBB1498:
.LBI1498:
	.loc 12 20 13 view .LVU437
	.loc 12 20 13 is_stmt 0 view .LVU438
.LBE1498:
.LBE1497:
	.loc 12 30 7 view .LVU439
	@ sp needed
	.loc 12 30 7 discriminator 1 view .LVU440
	movs	r1, #8
	bl	_ZdlPvj
.LVL133:
	.loc 12 30 7 view .LVU441
	movs	r0, r4
.LVL134:
	.loc 12 30 7 view .LVU442
	pop	{r4, pc}
	.cfi_endproc
.LFE846:
	.size	_ZN17MockBatteryDriverD0Ev, .-_ZN17MockBatteryDriverD0Ev
	.section	.rodata.str1.4
	.align	2
.LC6:
	.ascii	"/tmp/log.txt\000"
	.align	2
.LC9:
	.ascii	"Hello from auroraOS RamFS! You found the hidden mes"
	.ascii	"sage.\000"
	.align	2
.LC12:
	.ascii	"/tmp/app.elf\000"
	.text
	.align	1
	.p2align 2,,3
	.global	shell_task
	.syntax unified
	.code	16
	.thumb_func
	.type	shell_task, %function
shell_task:
.LFB881:
	.loc 1 81 34 is_stmt 1 view -0
	.cfi_startproc
	@ args = 0, pretend = 0, frame = 0
	@ frame_needed = 0, uses_anonymous_args = 0
	.loc 1 83 5 view .LVU444
.LBB1499:
.LBI1499:
	.loc 2 35 24 view .LVU445
	.loc 2 36 9 view .LVU446
	.loc 2 37 9 view .LVU447
.LBE1499:
	.loc 1 81 34 is_stmt 0 view .LVU448
	push	{r4, r5, r6, lr}
	.cfi_def_cfa_offset 16
	.cfi_offset 4, -16
	.cfi_offset 5, -12
	.cfi_offset 6, -8
	.cfi_offset 14, -4
	.loc 1 83 41 discriminator 1 view .LVU449
	ldr	r6, .L95
	movs	r2, #0
	movs	r0, r6
	ldr	r1, .L95+4
	bl	_ZN10VfsManager4openEPKci
.LVL135:
	subs	r5, r0, #0
.LVL136:
	.loc 1 84 5 is_stmt 1 view .LVU450
.LBB1500:
	blt	.L91
.LBB1501:
	.loc 1 86 13 is_stmt 0 view .LVU451
	movs	r3, #0
	ldr	r2, .L95+8
.L92:
.LVL137:
	.loc 1 86 42 is_stmt 1 discriminator 3 view .LVU452
	.loc 1 86 39 is_stmt 0 discriminator 1 view .LVU453
	adds	r2, r2, #1
	subs	r4, r2, #1
	ldrb	r4, [r4]
	.loc 1 86 45 discriminator 3 view .LVU454
	adds	r3, r3, #1
.LVL138:
	.loc 1 86 39 is_stmt 1 discriminator 1 view .LVU455
	cmp	r4, #0
	bne	.L92
	.loc 1 87 9 view .LVU456
.LBB1502:
.LBI1502:
	.loc 2 35 24 view .LVU457
	.loc 2 36 9 view .LVU458
	.loc 2 37 9 view .LVU459
.LBE1502:
	.loc 1 87 37 is_stmt 0 discriminator 1 view .LVU460
	movs	r1, r5
	movs	r0, r6
.LVL139:
	.loc 1 87 37 discriminator 1 view .LVU461
	ldr	r2, .L95+12
	bl	_ZN10VfsManager5writeEiPKci
.LVL140:
	.loc 1 88 9 is_stmt 1 view .LVU462
.LBB1503:
.LBI1503:
	.loc 2 35 24 view .LVU463
	.loc 2 36 9 view .LVU464
	.loc 2 37 9 view .LVU465
.LBE1503:
	.loc 1 88 37 is_stmt 0 discriminator 1 view .LVU466
	movs	r1, r5
	movs	r0, r6
	bl	_ZN10VfsManager5closeEi
.LVL141:
.L91:
	.loc 1 88 37 discriminator 1 view .LVU467
.LBE1501:
.LBE1500:
	.loc 1 93 5 is_stmt 1 view .LVU468
	.loc 1 109 5 view .LVU469
.LBB1504:
.LBI1504:
	.loc 2 35 24 view .LVU470
	.loc 2 36 9 view .LVU471
	.loc 2 37 9 view .LVU472
.LBE1504:
	.loc 1 109 45 is_stmt 0 discriminator 1 view .LVU473
	movs	r2, #0
	movs	r0, r6
	ldr	r1, .L95+16
	bl	_ZN10VfsManager4openEPKci
.LVL142:
	subs	r4, r0, #0
.LVL143:
	.loc 1 110 5 is_stmt 1 view .LVU474
	blt	.L93
	.loc 1 111 9 view .LVU475
.LBB1505:
.LBI1505:
	.loc 2 35 24 view .LVU476
	.loc 2 36 9 view .LVU477
	.loc 2 37 9 view .LVU478
.LBE1505:
	.loc 1 111 37 is_stmt 0 discriminator 1 view .LVU479
	movs	r1, r0
	movs	r3, #110
	movs	r0, r6
.LVL144:
	.loc 1 111 37 discriminator 1 view .LVU480
	ldr	r2, .L95+20
	bl	_ZN10VfsManager5writeEiPKci
.LVL145:
	.loc 1 112 9 is_stmt 1 view .LVU481
.LBB1506:
.LBI1506:
	.loc 2 35 24 view .LVU482
	.loc 2 36 9 view .LVU483
	.loc 2 37 9 view .LVU484
.LBE1506:
	.loc 1 112 37 is_stmt 0 discriminator 1 view .LVU485
	movs	r1, r4
	movs	r0, r6
	bl	_ZN10VfsManager5closeEi
.LVL146:
.L93:
	.loc 1 116 5 is_stmt 1 view .LVU486
	.loc 1 117 1 is_stmt 0 view .LVU487
	@ sp needed
	.loc 1 116 15 view .LVU488
	bl	_ZN5Shell3runEv
.LVL147:
.LVL148:
.LVL149:
	.loc 1 117 1 view .LVU489
	pop	{r4, r5, r6, pc}
.L96:
	.align	2
.L95:
	.word	_ZZN10VfsManager8instanceEvE3vfs
	.word	.LC6
	.word	.LC9+1
	.word	.LC9
	.word	.LC12
	.word	.LANCHOR0
	.cfi_endproc
.LFE881:
	.size	shell_task, .-shell_task
	.section	.text._ZN17MiniProgramEngine12api_get_timeEP9lua_State,"axG",%progbits,_ZN17MiniProgramEngine12api_get_timeEP9lua_State,comdat
	.align	1
	.p2align 2,,3
	.weak	_ZN17MiniProgramEngine12api_get_timeEP9lua_State
	.syntax unified
	.code	16
	.thumb_func
	.type	_ZN17MiniProgramEngine12api_get_timeEP9lua_State, %function
_ZN17MiniProgramEngine12api_get_timeEP9lua_State:
.LVL150:
.LFB693:
	.file 13 "J:/PROJECT/auroraOS/apps/mini_program_engine.hpp"
	.loc 13 106 16 is_stmt 1 view -0
	.cfi_startproc
	@ args = 0, pretend = 0, frame = 8
	@ frame_needed = 0, uses_anonymous_args = 0
	.loc 13 107 9 view .LVU491
	.loc 13 108 9 view .LVU492
	.loc 13 106 16 is_stmt 0 view .LVU493
	push	{r4, lr}
	.cfi_def_cfa_offset 8
	.cfi_offset 4, -8
	.cfi_offset 14, -4
	.loc 13 108 18 view .LVU494
	movs	r3, #0
	.loc 13 106 16 view .LVU495
	movs	r4, r0
	sub	sp, sp, #8
	.cfi_def_cfa_offset 16
	.loc 13 109 24 view .LVU496
	mov	r0, sp
.LVL151:
	.loc 13 109 24 view .LVU497
	add	r1, sp, #4
	.loc 13 108 18 view .LVU498
	str	r3, [sp]
	.loc 13 108 25 view .LVU499
	str	r3, [sp, #4]
	.loc 13 109 9 is_stmt 1 view .LVU500
	.loc 13 109 24 is_stmt 0 view .LVU501
	bl	_Z15aurora_get_timeRmS_
.LVL152:
	.loc 13 110 9 is_stmt 1 view .LVU502
	.loc 13 110 24 is_stmt 0 view .LVU503
	movs	r0, r4
	ldr	r1, [sp]
	bl	lua_pushinteger
.LVL153:
	.loc 13 111 9 is_stmt 1 view .LVU504
	.loc 13 111 24 is_stmt 0 view .LVU505
	movs	r0, r4
	ldr	r1, [sp, #4]
	bl	lua_pushinteger
.LVL154:
	.loc 13 112 9 is_stmt 1 view .LVU506
	.loc 13 113 5 is_stmt 0 view .LVU507
	movs	r0, #2
	add	sp, sp, #8
	@ sp needed
.LVL155:
	.loc 13 113 5 view .LVU508
	pop	{r4, pc}
	.cfi_endproc
.LFE693:
	.size	_ZN17MiniProgramEngine12api_get_timeEP9lua_State, .-_ZN17MiniProgramEngine12api_get_timeEP9lua_State
	.section	.rodata._ZN17MiniProgramEngine9api_printEP9lua_State.str1.4,"aMS",%progbits,1
	.align	2
.LC16:
	.ascii	"[Lua App] \000"
	.align	2
.LC18:
	.ascii	"\015\012\000"
	.section	.text._ZN17MiniProgramEngine9api_printEP9lua_State,"axG",%progbits,_ZN17MiniProgramEngine9api_printEP9lua_State,comdat
	.align	1
	.p2align 2,,3
	.weak	_ZN17MiniProgramEngine9api_printEP9lua_State
	.syntax unified
	.code	16
	.thumb_func
	.type	_ZN17MiniProgramEngine9api_printEP9lua_State, %function
_ZN17MiniProgramEngine9api_printEP9lua_State:
.LVL156:
.LFB692:
	.loc 13 89 16 is_stmt 1 view -0
	.cfi_startproc
	@ args = 0, pretend = 0, frame = 0
	@ frame_needed = 0, uses_anonymous_args = 0
	.loc 13 90 9 view .LVU510
	.loc 13 89 16 is_stmt 0 view .LVU511
	push	{r4, r5, r6, lr}
	.cfi_def_cfa_offset 16
	.cfi_offset 4, -16
	.cfi_offset 5, -12
	.cfi_offset 6, -8
	.cfi_offset 14, -4
	.loc 13 90 45 view .LVU512
	movs	r2, #0
	movs	r1, #1
	bl	luaL_checklstring
.LVL157:
	.loc 13 91 22 view .LVU513
	movs	r1, #0
	.loc 13 90 45 view .LVU514
	movs	r4, r0
.LVL158:
	.loc 13 91 9 is_stmt 1 view .LVU515
	.loc 13 91 22 is_stmt 0 view .LVU516
	ldr	r0, .L103
.LVL159:
	.loc 13 91 22 view .LVU517
	bl	open
.LVL160:
	.loc 13 92 14 view .LVU518
	movs	r2, #10
	ldr	r1, .L103+4
	.loc 13 91 22 view .LVU519
	movs	r5, r0
.LVL161:
	.loc 13 92 9 is_stmt 1 view .LVU520
	.loc 13 92 14 is_stmt 0 view .LVU521
	bl	write
.LVL162:
	.loc 13 94 9 is_stmt 1 view .LVU522
	.loc 13 95 9 view .LVU523
	.loc 13 95 23 discriminator 1 view .LVU524
	ldrb	r3, [r4]
	cmp	r3, #0
	beq	.L101
	.loc 13 94 13 is_stmt 0 view .LVU525
	movs	r3, #0
.LVL163:
.L100:
	.loc 13 95 26 is_stmt 1 discriminator 2 view .LVU526
	.loc 13 95 29 is_stmt 0 discriminator 2 view .LVU527
	adds	r3, r3, #1
.LVL164:
	.loc 13 95 23 is_stmt 1 discriminator 1 view .LVU528
	ldrb	r1, [r4, r3]
	movs	r2, r3
	cmp	r1, #0
	bne	.L100
.LVL165:
.L99:
	.loc 13 97 9 view .LVU529
	.loc 13 101 5 is_stmt 0 view .LVU530
	@ sp needed
	.loc 13 97 14 view .LVU531
	movs	r1, r4
	movs	r0, r5
	bl	write
.LVL166:
	.loc 13 98 9 is_stmt 1 view .LVU532
	.loc 13 98 14 is_stmt 0 view .LVU533
	movs	r2, #2
	movs	r0, r5
	ldr	r1, .L103+8
	bl	write
.LVL167:
	.loc 13 99 9 is_stmt 1 view .LVU534
	.loc 13 99 14 is_stmt 0 view .LVU535
	movs	r0, r5
	bl	close
.LVL168:
	.loc 13 100 9 is_stmt 1 view .LVU536
	.loc 13 101 5 is_stmt 0 view .LVU537
	movs	r0, #0
.LVL169:
.LVL170:
	.loc 13 101 5 view .LVU538
	pop	{r4, r5, r6, pc}
.LVL171:
.L101:
	.loc 13 95 20 discriminator 1 view .LVU539
	movs	r2, #0
	b	.L99
.L104:
	.align	2
.L103:
	.word	.LC2
	.word	.LC16
	.word	.LC18
	.cfi_endproc
.LFE692:
	.size	_ZN17MiniProgramEngine9api_printEP9lua_State, .-_ZN17MiniProgramEngine9api_printEP9lua_State
	.section	.text._ZN6DeviceD2Ev,"axG",%progbits,_ZN6DeviceD5Ev,comdat
	.align	1
	.p2align 2,,3
	.weak	_ZN6DeviceD2Ev
	.syntax unified
	.code	16
	.thumb_func
	.type	_ZN6DeviceD2Ev, %function
_ZN6DeviceD2Ev:
.LVL172:
.LFB198:
	.loc 3 26 13 is_stmt 1 view -0
	.cfi_startproc
	@ args = 0, pretend = 0, frame = 0
	@ frame_needed = 0, uses_anonymous_args = 0
.LBB1507:
	.loc 3 26 23 is_stmt 0 view .LVU541
	ldr	r3, .L110
.LBE1507:
	.loc 3 26 13 view .LVU542
	push	{r4, lr}
	.cfi_def_cfa_offset 8
	.cfi_offset 4, -8
	.cfi_offset 14, -4
	.loc 3 26 13 view .LVU543
	movs	r4, r0
.LBB1509:
	.loc 3 26 23 view .LVU544
	str	r3, [r0]
	.loc 3 27 9 is_stmt 1 view .LVU545
	.loc 3 27 13 is_stmt 0 view .LVU546
	ldr	r0, [r0, #12]
.LVL173:
	.loc 3 27 9 view .LVU547
	cmp	r0, #0
	beq	.L106
	.loc 3 27 24 is_stmt 1 discriminator 1 view .LVU548
	.loc 3 27 28 is_stmt 0 discriminator 1 view .LVU549
	bl	free
.LVL174:
.L106:
.LBB1508:
.LBI1508:
	.loc 2 8 13 is_stmt 1 view .LVU550
	.loc 2 8 13 is_stmt 0 view .LVU551
.LBE1508:
.LBE1509:
	.loc 3 28 5 view .LVU552
	@ sp needed
	movs	r0, r4
.LVL175:
	.loc 3 28 5 view .LVU553
	pop	{r4, pc}
.L111:
	.align	2
.L110:
	.word	_ZTV6Device+8
	.cfi_endproc
.LFE198:
	.size	_ZN6DeviceD2Ev, .-_ZN6DeviceD2Ev
	.weak	_ZN6DeviceD1Ev
	.thumb_set _ZN6DeviceD1Ev,_ZN6DeviceD2Ev
	.section	.text._ZN6DeviceD0Ev,"axG",%progbits,_ZN6DeviceD5Ev,comdat
	.align	1
	.p2align 2,,3
	.weak	_ZN6DeviceD0Ev
	.syntax unified
	.code	16
	.thumb_func
	.type	_ZN6DeviceD0Ev, %function
_ZN6DeviceD0Ev:
.LVL176:
.LFB200:
	.loc 3 26 13 is_stmt 1 view -0
	.cfi_startproc
	@ args = 0, pretend = 0, frame = 0
	@ frame_needed = 0, uses_anonymous_args = 0
.LBB1510:
.LBI1510:
	.loc 3 26 13 view .LVU555
.LBB1511:
	.loc 3 26 23 is_stmt 0 view .LVU556
	ldr	r3, .L117
.LBE1511:
.LBE1510:
	.loc 3 26 13 view .LVU557
	push	{r4, lr}
	.cfi_def_cfa_offset 8
	.cfi_offset 4, -8
	.cfi_offset 14, -4
	.loc 3 26 13 view .LVU558
	movs	r4, r0
.LBB1514:
.LBB1513:
	.loc 3 26 23 view .LVU559
	str	r3, [r0]
	.loc 3 27 9 is_stmt 1 view .LVU560
	.loc 3 27 13 is_stmt 0 view .LVU561
	ldr	r0, [r0, #12]
.LVL177:
	.loc 3 27 9 view .LVU562
	cmp	r0, #0
	beq	.L113
	.loc 3 27 24 is_stmt 1 discriminator 1 view .LVU563
	.loc 3 27 28 is_stmt 0 discriminator 1 view .LVU564
	bl	free
.LVL178:
.L113:
.LBB1512:
.LBI1512:
	.loc 2 8 13 is_stmt 1 view .LVU565
	.loc 2 8 13 is_stmt 0 view .LVU566
.LBE1512:
.LBE1513:
.LBE1514:
	.loc 3 28 5 view .LVU567
	@ sp needed
	.loc 3 28 5 discriminator 1 view .LVU568
	movs	r0, r4
	movs	r1, #16
	bl	_ZdlPvj
.LVL179:
	.loc 3 28 5 view .LVU569
	movs	r0, r4
.LVL180:
	.loc 3 28 5 view .LVU570
	pop	{r4, pc}
.L118:
	.align	2
.L117:
	.word	_ZTV6Device+8
	.cfi_endproc
.LFE200:
	.size	_ZN6DeviceD0Ev, .-_ZN6DeviceD0Ev
	.section	.text._ZN10UartDeviceD2Ev,"axG",%progbits,_ZN10UartDeviceD5Ev,comdat
	.align	1
	.p2align 2,,3
	.weak	_ZN10UartDeviceD2Ev
	.syntax unified
	.code	16
	.thumb_func
	.type	_ZN10UartDeviceD2Ev, %function
_ZN10UartDeviceD2Ev:
.LVL181:
.LFB916:
	.loc 10 9 7 is_stmt 1 view -0
	.cfi_startproc
	@ args = 0, pretend = 0, frame = 0
	@ frame_needed = 0, uses_anonymous_args = 0
.LBB1515:
.LBI1515:
	.loc 3 43 7 view .LVU572
.LBB1516:
.LBI1516:
	.loc 3 26 13 view .LVU573
.LBB1517:
	.loc 3 26 23 is_stmt 0 view .LVU574
	ldr	r3, .L124
.LBE1517:
.LBE1516:
.LBE1515:
	.loc 10 9 7 view .LVU575
	push	{r4, lr}
	.cfi_def_cfa_offset 8
	.cfi_offset 4, -8
	.cfi_offset 14, -4
	.loc 10 9 7 view .LVU576
	movs	r4, r0
.LBB1521:
.LBB1520:
.LBB1519:
	.loc 3 26 23 view .LVU577
	str	r3, [r0]
	.loc 3 27 9 is_stmt 1 view .LVU578
	.loc 3 27 13 is_stmt 0 view .LVU579
	ldr	r0, [r0, #12]
.LVL182:
	.loc 3 27 9 view .LVU580
	cmp	r0, #0
	beq	.L120
	.loc 3 27 24 is_stmt 1 discriminator 1 view .LVU581
	.loc 3 27 28 is_stmt 0 discriminator 1 view .LVU582
	bl	free
.LVL183:
.L120:
.LBB1518:
.LBI1518:
	.loc 2 8 13 is_stmt 1 view .LVU583
	.loc 2 8 13 is_stmt 0 view .LVU584
.LBE1518:
.LBE1519:
.LBE1520:
.LBE1521:
	.loc 10 9 7 view .LVU585
	@ sp needed
	movs	r0, r4
.LVL184:
	.loc 10 9 7 view .LVU586
	pop	{r4, pc}
.L125:
	.align	2
.L124:
	.word	_ZTV6Device+8
	.cfi_endproc
.LFE916:
	.size	_ZN10UartDeviceD2Ev, .-_ZN10UartDeviceD2Ev
	.weak	_ZN10UartDeviceD1Ev
	.thumb_set _ZN10UartDeviceD1Ev,_ZN10UartDeviceD2Ev
	.section	.text._ZN10UartDeviceD0Ev,"axG",%progbits,_ZN10UartDeviceD5Ev,comdat
	.align	1
	.p2align 2,,3
	.weak	_ZN10UartDeviceD0Ev
	.syntax unified
	.code	16
	.thumb_func
	.type	_ZN10UartDeviceD0Ev, %function
_ZN10UartDeviceD0Ev:
.LVL185:
.LFB918:
	.loc 10 9 7 is_stmt 1 view -0
	.cfi_startproc
	@ args = 0, pretend = 0, frame = 0
	@ frame_needed = 0, uses_anonymous_args = 0
.LBB1522:
.LBI1522:
	.loc 10 9 7 view .LVU588
.LBB1523:
.LBI1523:
	.loc 3 43 7 view .LVU589
.LBB1524:
.LBI1524:
	.loc 3 26 13 view .LVU590
.LBB1525:
	.loc 3 26 23 is_stmt 0 view .LVU591
	ldr	r3, .L131
.LBE1525:
.LBE1524:
.LBE1523:
.LBE1522:
	.loc 10 9 7 view .LVU592
	push	{r4, lr}
	.cfi_def_cfa_offset 8
	.cfi_offset 4, -8
	.cfi_offset 14, -4
	.loc 10 9 7 view .LVU593
	movs	r4, r0
.LBB1530:
.LBB1529:
.LBB1528:
.LBB1527:
	.loc 3 26 23 view .LVU594
	str	r3, [r0]
	.loc 3 27 9 is_stmt 1 view .LVU595
	.loc 3 27 13 is_stmt 0 view .LVU596
	ldr	r0, [r0, #12]
.LVL186:
	.loc 3 27 9 view .LVU597
	cmp	r0, #0
	beq	.L127
	.loc 3 27 24 is_stmt 1 discriminator 1 view .LVU598
	.loc 3 27 28 is_stmt 0 discriminator 1 view .LVU599
	bl	free
.LVL187:
.L127:
.LBB1526:
.LBI1526:
	.loc 2 8 13 is_stmt 1 view .LVU600
	.loc 2 8 13 is_stmt 0 view .LVU601
.LBE1526:
.LBE1527:
.LBE1528:
.LBE1529:
.LBE1530:
	.loc 10 9 7 view .LVU602
	@ sp needed
	.loc 10 9 7 discriminator 1 view .LVU603
	movs	r0, r4
	movs	r1, #36
	bl	_ZdlPvj
.LVL188:
	.loc 10 9 7 view .LVU604
	movs	r0, r4
.LVL189:
	.loc 10 9 7 view .LVU605
	pop	{r4, pc}
.L132:
	.align	2
.L131:
	.word	_ZTV6Device+8
	.cfi_endproc
.LFE918:
	.size	_ZN10UartDeviceD0Ev, .-_ZN10UartDeviceD0Ev
	.section	.text._ZN11TouchDriverD2Ev,"axG",%progbits,_ZN11TouchDriverD5Ev,comdat
	.align	1
	.p2align 2,,3
	.weak	_ZN11TouchDriverD2Ev
	.syntax unified
	.code	16
	.thumb_func
	.type	_ZN11TouchDriverD2Ev, %function
_ZN11TouchDriverD2Ev:
.LVL190:
.LFB1045:
	.loc 5 10 7 is_stmt 1 view -0
	.cfi_startproc
	@ args = 0, pretend = 0, frame = 0
	@ frame_needed = 0, uses_anonymous_args = 0
.LBB1531:
.LBI1531:
	.loc 3 43 7 view .LVU607
.LBB1532:
.LBI1532:
	.loc 3 26 13 view .LVU608
.LBB1533:
	.loc 3 26 23 is_stmt 0 view .LVU609
	ldr	r3, .L138
.LBE1533:
.LBE1532:
.LBE1531:
	.loc 5 10 7 view .LVU610
	push	{r4, lr}
	.cfi_def_cfa_offset 8
	.cfi_offset 4, -8
	.cfi_offset 14, -4
	.loc 5 10 7 view .LVU611
	movs	r4, r0
.LBB1537:
.LBB1536:
.LBB1535:
	.loc 3 26 23 view .LVU612
	str	r3, [r0]
	.loc 3 27 9 is_stmt 1 view .LVU613
	.loc 3 27 13 is_stmt 0 view .LVU614
	ldr	r0, [r0, #12]
.LVL191:
	.loc 3 27 9 view .LVU615
	cmp	r0, #0
	beq	.L134
	.loc 3 27 24 is_stmt 1 discriminator 1 view .LVU616
	.loc 3 27 28 is_stmt 0 discriminator 1 view .LVU617
	bl	free
.LVL192:
.L134:
.LBB1534:
.LBI1534:
	.loc 2 8 13 is_stmt 1 view .LVU618
	.loc 2 8 13 is_stmt 0 view .LVU619
.LBE1534:
.LBE1535:
.LBE1536:
.LBE1537:
	.loc 5 10 7 view .LVU620
	@ sp needed
	movs	r0, r4
.LVL193:
	.loc 5 10 7 view .LVU621
	pop	{r4, pc}
.L139:
	.align	2
.L138:
	.word	_ZTV6Device+8
	.cfi_endproc
.LFE1045:
	.size	_ZN11TouchDriverD2Ev, .-_ZN11TouchDriverD2Ev
	.weak	_ZN11TouchDriverD1Ev
	.thumb_set _ZN11TouchDriverD1Ev,_ZN11TouchDriverD2Ev
	.section	.text._ZN11TouchDriverD0Ev,"axG",%progbits,_ZN11TouchDriverD5Ev,comdat
	.align	1
	.p2align 2,,3
	.weak	_ZN11TouchDriverD0Ev
	.syntax unified
	.code	16
	.thumb_func
	.type	_ZN11TouchDriverD0Ev, %function
_ZN11TouchDriverD0Ev:
.LVL194:
.LFB1047:
	.loc 5 10 7 is_stmt 1 view -0
	.cfi_startproc
	@ args = 0, pretend = 0, frame = 0
	@ frame_needed = 0, uses_anonymous_args = 0
.LBB1538:
.LBI1538:
	.loc 5 10 7 view .LVU623
.LBB1539:
.LBI1539:
	.loc 3 43 7 view .LVU624
.LBB1540:
.LBI1540:
	.loc 3 26 13 view .LVU625
.LBB1541:
	.loc 3 26 23 is_stmt 0 view .LVU626
	ldr	r3, .L145
.LBE1541:
.LBE1540:
.LBE1539:
.LBE1538:
	.loc 5 10 7 view .LVU627
	push	{r4, lr}
	.cfi_def_cfa_offset 8
	.cfi_offset 4, -8
	.cfi_offset 14, -4
	.loc 5 10 7 view .LVU628
	movs	r4, r0
.LBB1546:
.LBB1545:
.LBB1544:
.LBB1543:
	.loc 3 26 23 view .LVU629
	str	r3, [r0]
	.loc 3 27 9 is_stmt 1 view .LVU630
	.loc 3 27 13 is_stmt 0 view .LVU631
	ldr	r0, [r0, #12]
.LVL195:
	.loc 3 27 9 view .LVU632
	cmp	r0, #0
	beq	.L141
	.loc 3 27 24 is_stmt 1 discriminator 1 view .LVU633
	.loc 3 27 28 is_stmt 0 discriminator 1 view .LVU634
	bl	free
.LVL196:
.L141:
.LBB1542:
.LBI1542:
	.loc 2 8 13 is_stmt 1 view .LVU635
	.loc 2 8 13 is_stmt 0 view .LVU636
.LBE1542:
.LBE1543:
.LBE1544:
.LBE1545:
.LBE1546:
	.loc 5 10 7 view .LVU637
	@ sp needed
	.loc 5 10 7 discriminator 1 view .LVU638
	movs	r0, r4
	movs	r1, #40
	bl	_ZdlPvj
.LVL197:
	.loc 5 10 7 view .LVU639
	movs	r0, r4
.LVL198:
	.loc 5 10 7 view .LVU640
	pop	{r4, pc}
.L146:
	.align	2
.L145:
	.word	_ZTV6Device+8
	.cfi_endproc
.LFE1047:
	.size	_ZN11TouchDriverD0Ev, .-_ZN11TouchDriverD0Ev
	.section	.text._ZN10OledDriverD2Ev,"axG",%progbits,_ZN10OledDriverD5Ev,comdat
	.align	1
	.p2align 2,,3
	.weak	_ZN10OledDriverD2Ev
	.syntax unified
	.code	16
	.thumb_func
	.type	_ZN10OledDriverD2Ev, %function
_ZN10OledDriverD2Ev:
.LVL199:
.LFB1049:
	.loc 4 10 7 is_stmt 1 view -0
	.cfi_startproc
	@ args = 0, pretend = 0, frame = 0
	@ frame_needed = 0, uses_anonymous_args = 0
.LBB1547:
.LBI1547:
	.loc 3 43 7 view .LVU642
.LBB1548:
.LBI1548:
	.loc 3 26 13 view .LVU643
.LBB1549:
	.loc 3 26 23 is_stmt 0 view .LVU644
	ldr	r3, .L152
.LBE1549:
.LBE1548:
.LBE1547:
	.loc 4 10 7 view .LVU645
	push	{r4, lr}
	.cfi_def_cfa_offset 8
	.cfi_offset 4, -8
	.cfi_offset 14, -4
	.loc 4 10 7 view .LVU646
	movs	r4, r0
.LBB1553:
.LBB1552:
.LBB1551:
	.loc 3 26 23 view .LVU647
	str	r3, [r0]
	.loc 3 27 9 is_stmt 1 view .LVU648
	.loc 3 27 13 is_stmt 0 view .LVU649
	ldr	r0, [r0, #12]
.LVL200:
	.loc 3 27 9 view .LVU650
	cmp	r0, #0
	beq	.L148
	.loc 3 27 24 is_stmt 1 discriminator 1 view .LVU651
	.loc 3 27 28 is_stmt 0 discriminator 1 view .LVU652
	bl	free
.LVL201:
.L148:
.LBB1550:
.LBI1550:
	.loc 2 8 13 is_stmt 1 view .LVU653
	.loc 2 8 13 is_stmt 0 view .LVU654
.LBE1550:
.LBE1551:
.LBE1552:
.LBE1553:
	.loc 4 10 7 view .LVU655
	@ sp needed
	movs	r0, r4
.LVL202:
	.loc 4 10 7 view .LVU656
	pop	{r4, pc}
.L153:
	.align	2
.L152:
	.word	_ZTV6Device+8
	.cfi_endproc
.LFE1049:
	.size	_ZN10OledDriverD2Ev, .-_ZN10OledDriverD2Ev
	.weak	_ZN10OledDriverD1Ev
	.thumb_set _ZN10OledDriverD1Ev,_ZN10OledDriverD2Ev
	.section	.text._ZN10OledDriverD0Ev,"axG",%progbits,_ZN10OledDriverD5Ev,comdat
	.align	1
	.p2align 2,,3
	.weak	_ZN10OledDriverD0Ev
	.syntax unified
	.code	16
	.thumb_func
	.type	_ZN10OledDriverD0Ev, %function
_ZN10OledDriverD0Ev:
.LVL203:
.LFB1051:
	.loc 4 10 7 is_stmt 1 view -0
	.cfi_startproc
	@ args = 0, pretend = 0, frame = 0
	@ frame_needed = 0, uses_anonymous_args = 0
.LBB1554:
.LBI1554:
	.loc 4 10 7 view .LVU658
.LBB1555:
.LBI1555:
	.loc 3 43 7 view .LVU659
.LBB1556:
.LBI1556:
	.loc 3 26 13 view .LVU660
.LBB1557:
	.loc 3 26 23 is_stmt 0 view .LVU661
	ldr	r3, .L159
.LBE1557:
.LBE1556:
.LBE1555:
.LBE1554:
	.loc 4 10 7 view .LVU662
	push	{r4, lr}
	.cfi_def_cfa_offset 8
	.cfi_offset 4, -8
	.cfi_offset 14, -4
	.loc 4 10 7 view .LVU663
	movs	r4, r0
.LBB1562:
.LBB1561:
.LBB1560:
.LBB1559:
	.loc 3 26 23 view .LVU664
	str	r3, [r0]
	.loc 3 27 9 is_stmt 1 view .LVU665
	.loc 3 27 13 is_stmt 0 view .LVU666
	ldr	r0, [r0, #12]
.LVL204:
	.loc 3 27 9 view .LVU667
	cmp	r0, #0
	beq	.L155
	.loc 3 27 24 is_stmt 1 discriminator 1 view .LVU668
	.loc 3 27 28 is_stmt 0 discriminator 1 view .LVU669
	bl	free
.LVL205:
.L155:
.LBB1558:
.LBI1558:
	.loc 2 8 13 is_stmt 1 view .LVU670
	.loc 2 8 13 is_stmt 0 view .LVU671
.LBE1558:
.LBE1559:
.LBE1560:
.LBE1561:
.LBE1562:
	.loc 4 10 7 view .LVU672
	@ sp needed
	.loc 4 10 7 discriminator 1 view .LVU673
	movs	r0, r4
	movs	r1, #24
	bl	_ZdlPvj
.LVL206:
	.loc 4 10 7 view .LVU674
	movs	r0, r4
.LVL207:
	.loc 4 10 7 view .LVU675
	pop	{r4, pc}
.L160:
	.align	2
.L159:
	.word	_ZTV6Device+8
	.cfi_endproc
.LFE1051:
	.size	_ZN10OledDriverD0Ev, .-_ZN10OledDriverD0Ev
	.section	.text._ZN17MiniProgramEngineD2Ev,"axG",%progbits,_ZN17MiniProgramEngineD5Ev,comdat
	.align	1
	.p2align 2,,3
	.weak	_ZN17MiniProgramEngineD2Ev
	.syntax unified
	.code	16
	.thumb_func
	.type	_ZN17MiniProgramEngineD2Ev, %function
_ZN17MiniProgramEngineD2Ev:
.LVL208:
.LFB698:
	.loc 13 118 5 is_stmt 1 view -0
	.cfi_startproc
	@ args = 0, pretend = 0, frame = 0
	@ frame_needed = 0, uses_anonymous_args = 0
.LBB1563:
	.loc 13 119 9 view .LVU677
.LBE1563:
	.loc 13 118 5 is_stmt 0 view .LVU678
	push	{r4, lr}
	.cfi_def_cfa_offset 8
	.cfi_offset 4, -8
	.cfi_offset 14, -4
	.loc 13 118 5 view .LVU679
	movs	r4, r0
.LBB1564:
	.loc 13 119 13 view .LVU680
	ldr	r0, [r0]
.LVL209:
	.loc 13 119 9 view .LVU681
	cmp	r0, #0
	beq	.L162
	.loc 13 119 17 is_stmt 1 discriminator 1 view .LVU682
	.loc 13 119 26 is_stmt 0 discriminator 1 view .LVU683
	bl	lua_close
.LVL210:
.L162:
.LBE1564:
	.loc 13 120 5 view .LVU684
	@ sp needed
	movs	r0, r4
.LVL211:
	.loc 13 120 5 view .LVU685
	pop	{r4, pc}
	.cfi_endproc
.LFE698:
	.size	_ZN17MiniProgramEngineD2Ev, .-_ZN17MiniProgramEngineD2Ev
	.weak	_ZN17MiniProgramEngineD1Ev
	.thumb_set _ZN17MiniProgramEngineD1Ev,_ZN17MiniProgramEngineD2Ev
	.section	.text._ZN13LittleFsVNode5writeEPKciiPv,"axG",%progbits,_ZN13LittleFsVNode5writeEPKciiPv,comdat
	.align	1
	.p2align 2,,3
	.weak	_ZN13LittleFsVNode5writeEPKciiPv
	.syntax unified
	.code	16
	.thumb_func
	.type	_ZN13LittleFsVNode5writeEPKciiPv, %function
_ZN13LittleFsVNode5writeEPKciiPv:
.LVL212:
.LFB767:
	.loc 9 134 9 is_stmt 1 view -0
	.cfi_startproc
	@ args = 4, pretend = 0, frame = 0
	@ frame_needed = 0, uses_anonymous_args = 0
	.loc 9 135 9 view .LVU687
	.loc 9 134 9 is_stmt 0 view .LVU688
	push	{r3, r4, r5, r6, r7, lr}
	.cfi_def_cfa_offset 24
	.cfi_offset 3, -24
	.cfi_offset 4, -20
	.cfi_offset 5, -16
	.cfi_offset 6, -12
	.cfi_offset 7, -8
	.cfi_offset 14, -4
	.loc 9 134 9 view .LVU689
	ldr	r6, [sp, #24]
	movs	r5, r2
	movs	r4, r0
	movs	r7, r1
	movs	r2, r3
.LVL213:
	.loc 9 135 9 view .LVU690
	cmp	r6, #0
	beq	.L168
	.loc 9 136 9 is_stmt 1 view .LVU691
.LVL214:
	.loc 9 137 9 view .LVU692
.LBB1565:
.LBI1565:
	.loc 9 86 12 view .LVU693
.LBB1566:
	.loc 9 86 24 view .LVU694
	.loc 9 86 24 is_stmt 0 view .LVU695
.LBE1566:
.LBE1565:
	.loc 9 137 22 discriminator 1 view .LVU696
	movs	r3, #0
.LVL215:
	.loc 9 137 22 discriminator 1 view .LVU697
	movs	r1, r6
.LVL216:
	.loc 9 137 22 discriminator 1 view .LVU698
	ldr	r0, [r0, #4]
.LVL217:
	.loc 9 137 22 discriminator 1 view .LVU699
	bl	lfs_file_seek
.LVL218:
	.loc 9 138 9 is_stmt 1 view .LVU700
.LBB1567:
.LBI1567:
	.loc 9 86 12 view .LVU701
.LBB1568:
	.loc 9 86 24 view .LVU702
	.loc 9 86 24 is_stmt 0 view .LVU703
.LBE1568:
.LBE1567:
	.loc 9 138 35 discriminator 1 view .LVU704
	movs	r3, r5
	movs	r2, r7
	movs	r1, r6
	ldr	r0, [r4, #4]
	bl	lfs_file_write
.LVL219:
	.loc 9 140 9 is_stmt 1 view .LVU705
.L166:
	.loc 9 141 5 is_stmt 0 view .LVU706
	@ sp needed
.LVL220:
.LVL221:
.LVL222:
	.loc 9 141 5 view .LVU707
	pop	{r3, r4, r5, r6, r7, pc}
.LVL223:
.L168:
	.loc 9 135 28 discriminator 1 view .LVU708
	movs	r0, #1
.LVL224:
	.loc 9 135 28 discriminator 1 view .LVU709
	rsbs	r0, r0, #0
	b	.L166
	.cfi_endproc
.LFE767:
	.size	_ZN13LittleFsVNode5writeEPKciiPv, .-_ZN13LittleFsVNode5writeEPKciiPv
	.section	.text._ZN13LittleFsVNode4readEPciiPv,"axG",%progbits,_ZN13LittleFsVNode4readEPciiPv,comdat
	.align	1
	.p2align 2,,3
	.weak	_ZN13LittleFsVNode4readEPciiPv
	.syntax unified
	.code	16
	.thumb_func
	.type	_ZN13LittleFsVNode4readEPciiPv, %function
_ZN13LittleFsVNode4readEPciiPv:
.LVL225:
.LFB766:
	.loc 9 127 9 is_stmt 1 view -0
	.cfi_startproc
	@ args = 4, pretend = 0, frame = 0
	@ frame_needed = 0, uses_anonymous_args = 0
	.loc 9 128 9 view .LVU711
	.loc 9 127 9 is_stmt 0 view .LVU712
	push	{r3, r4, r5, r6, r7, lr}
	.cfi_def_cfa_offset 24
	.cfi_offset 3, -24
	.cfi_offset 4, -20
	.cfi_offset 5, -16
	.cfi_offset 6, -12
	.cfi_offset 7, -8
	.cfi_offset 14, -4
	.loc 9 127 9 view .LVU713
	ldr	r6, [sp, #24]
	movs	r5, r2
	movs	r4, r0
	movs	r7, r1
	movs	r2, r3
.LVL226:
	.loc 9 128 9 view .LVU714
	cmp	r6, #0
	beq	.L171
	.loc 9 129 9 is_stmt 1 view .LVU715
.LVL227:
	.loc 9 130 9 view .LVU716
.LBB1569:
.LBI1569:
	.loc 9 86 12 view .LVU717
.LBB1570:
	.loc 9 86 24 view .LVU718
	.loc 9 86 24 is_stmt 0 view .LVU719
.LBE1570:
.LBE1569:
	.loc 9 130 22 discriminator 1 view .LVU720
	movs	r3, #0
.LVL228:
	.loc 9 130 22 discriminator 1 view .LVU721
	movs	r1, r6
.LVL229:
	.loc 9 130 22 discriminator 1 view .LVU722
	ldr	r0, [r0, #4]
.LVL230:
	.loc 9 130 22 discriminator 1 view .LVU723
	bl	lfs_file_seek
.LVL231:
	.loc 9 131 9 is_stmt 1 view .LVU724
.LBB1571:
.LBI1571:
	.loc 9 86 12 view .LVU725
.LBB1572:
	.loc 9 86 24 view .LVU726
	.loc 9 86 24 is_stmt 0 view .LVU727
.LBE1572:
.LBE1571:
	.loc 9 131 29 discriminator 1 view .LVU728
	movs	r3, r5
	movs	r2, r7
	movs	r1, r6
	ldr	r0, [r4, #4]
	bl	lfs_file_read
.LVL232:
.L169:
	.loc 9 132 5 view .LVU729
	@ sp needed
.LVL233:
.LVL234:
.LVL235:
	.loc 9 132 5 view .LVU730
	pop	{r3, r4, r5, r6, r7, pc}
.LVL236:
.L171:
	.loc 9 128 28 discriminator 1 view .LVU731
	movs	r0, #1
.LVL237:
	.loc 9 128 28 discriminator 1 view .LVU732
	rsbs	r0, r0, #0
	b	.L169
	.cfi_endproc
.LFE766:
	.size	_ZN13LittleFsVNode4readEPciiPv, .-_ZN13LittleFsVNode4readEPciiPv
	.section	.text._ZN13LittleFsVNode10close_fileEPv,"axG",%progbits,_ZN13LittleFsVNode10close_fileEPv,comdat
	.align	1
	.p2align 2,,3
	.weak	_ZN13LittleFsVNode10close_fileEPv
	.syntax unified
	.code	16
	.thumb_func
	.type	_ZN13LittleFsVNode10close_fileEPv, %function
_ZN13LittleFsVNode10close_fileEPv:
.LVL238:
.LFB768:
	.loc 9 143 9 is_stmt 1 view -0
	.cfi_startproc
	@ args = 0, pretend = 0, frame = 0
	@ frame_needed = 0, uses_anonymous_args = 0
	.loc 9 144 9 view .LVU734
	.loc 9 143 9 is_stmt 0 view .LVU735
	push	{r4, r5, r6, lr}
	.cfi_def_cfa_offset 16
	.cfi_offset 4, -16
	.cfi_offset 5, -12
	.cfi_offset 6, -8
	.cfi_offset 14, -4
	.loc 9 143 9 view .LVU736
	movs	r5, r0
	subs	r4, r1, #0
	.loc 9 144 9 view .LVU737
	beq	.L174
	.loc 9 145 9 is_stmt 1 view .LVU738
.LVL239:
	.loc 9 146 9 view .LVU739
.LBB1573:
.LBI1573:
	.loc 9 86 12 view .LVU740
.LBB1574:
	.loc 9 86 24 view .LVU741
	.loc 9 86 24 is_stmt 0 view .LVU742
.LBE1574:
.LBE1573:
	.loc 9 146 22 discriminator 1 view .LVU743
	ldr	r0, [r0, #4]
.LVL240:
	.loc 9 146 22 discriminator 1 view .LVU744
	bl	lfs_file_sync
.LVL241:
	.loc 9 147 9 is_stmt 1 view .LVU745
.LBB1575:
.LBI1575:
	.loc 9 86 12 view .LVU746
.LBB1576:
	.loc 9 86 24 view .LVU747
	.loc 9 86 24 is_stmt 0 view .LVU748
.LBE1576:
.LBE1575:
	.loc 9 147 33 discriminator 1 view .LVU749
	movs	r1, r4
	ldr	r0, [r5, #4]
	bl	lfs_file_close
.LVL242:
	.loc 9 148 16 discriminator 1 view .LVU750
	movs	r1, #84
	.loc 9 147 33 discriminator 1 view .LVU751
	movs	r5, r0
.LVL243:
	.loc 9 148 9 is_stmt 1 view .LVU752
	.loc 9 148 16 is_stmt 0 discriminator 1 view .LVU753
	movs	r0, r4
.LVL244:
	.loc 9 148 16 discriminator 1 view .LVU754
	bl	_ZdlPvj
.LVL245:
	.loc 9 149 9 is_stmt 1 view .LVU755
.L172:
	.loc 9 150 5 is_stmt 0 view .LVU756
	@ sp needed
	movs	r0, r5
.LVL246:
	.loc 9 150 5 view .LVU757
	pop	{r4, r5, r6, pc}
.LVL247:
.L174:
	.loc 9 144 28 discriminator 1 view .LVU758
	movs	r5, #1
	rsbs	r5, r5, #0
	b	.L172
	.cfi_endproc
.LFE768:
	.size	_ZN13LittleFsVNode10close_fileEPv, .-_ZN13LittleFsVNode10close_fileEPv
	.section	.text._ZN13LittleFsVNode9open_fileEPKciPPv,"axG",%progbits,_ZN13LittleFsVNode9open_fileEPKciPPv,comdat
	.align	1
	.p2align 2,,3
	.weak	_ZN13LittleFsVNode9open_fileEPKciPPv
	.syntax unified
	.code	16
	.thumb_func
	.type	_ZN13LittleFsVNode9open_fileEPKciPPv, %function
_ZN13LittleFsVNode9open_fileEPKciPPv:
.LVL248:
.LFB765:
	.loc 9 97 9 is_stmt 1 view -0
	.cfi_startproc
	@ args = 0, pretend = 0, frame = 0
	@ frame_needed = 0, uses_anonymous_args = 0
	.loc 9 98 9 view .LVU760
	.loc 9 101 9 view .LVU761
	.loc 9 97 9 is_stmt 0 view .LVU762
	push	{r4, r5, r6, r7, lr}
	.cfi_def_cfa_offset 20
	.cfi_offset 4, -20
	.cfi_offset 5, -16
	.cfi_offset 6, -12
	.cfi_offset 7, -8
	.cfi_offset 14, -4
	mov	lr, r8
	.loc 9 101 20 view .LVU763
	movs	r4, #3
	.loc 9 97 9 view .LVU764
	movs	r6, r0
	movs	r5, r1
	movs	r7, r3
	push	{lr}
	.cfi_def_cfa_offset 24
	.cfi_offset 8, -24
	.loc 9 101 20 view .LVU765
	ands	r4, r2
	.loc 9 101 9 view .LVU766
	cmp	r4, #2
	beq	.L182
	.loc 9 103 16 is_stmt 1 view .LVU767
	.loc 9 104 23 is_stmt 0 view .LVU768
	subs	r4, r4, #1
	rsbs	r3, r4, #0
	adcs	r4, r4, r3
.LVL249:
	.loc 9 104 23 view .LVU769
	adds	r4, r4, #1
.L176:
.LVL250:
	.loc 9 110 9 is_stmt 1 view .LVU770
	lsls	r3, r2, #22
	bpl	.L177
	.loc 9 110 29 discriminator 1 view .LVU771
	.loc 9 110 39 is_stmt 0 discriminator 1 view .LVU772
	movs	r3, #128
	lsls	r3, r3, #1
	orrs	r4, r3
.LVL251:
.L177:
	.loc 9 111 9 is_stmt 1 view .LVU773
	.loc 9 111 19 is_stmt 0 view .LVU774
	movs	r3, #128
	lsls	r3, r3, #3
	.loc 9 111 9 view .LVU775
	tst	r2, r3
	beq	.L178
	.loc 9 111 29 is_stmt 1 discriminator 1 view .LVU776
	.loc 9 111 39 is_stmt 0 discriminator 1 view .LVU777
	orrs	r4, r3
.LVL252:
.L178:
	.loc 9 112 9 is_stmt 1 view .LVU778
	.loc 9 112 19 is_stmt 0 view .LVU779
	movs	r3, #128
	lsls	r3, r3, #4
	.loc 9 112 9 view .LVU780
	tst	r2, r3
	beq	.L179
	.loc 9 112 29 is_stmt 1 discriminator 1 view .LVU781
	.loc 9 112 39 is_stmt 0 discriminator 1 view .LVU782
	orrs	r4, r3
.LVL253:
.L179:
	.loc 9 114 9 is_stmt 1 view .LVU783
	.loc 9 114 32 is_stmt 0 view .LVU784
	movs	r0, #84
.LVL254:
	.loc 9 114 32 view .LVU785
	bl	_Znwj
.LVL255:
	.loc 9 114 32 view .LVU786
	mov	r8, r0
.LVL256:
	.loc 9 115 9 is_stmt 1 view .LVU787
	.loc 9 117 9 view .LVU788
.LBB1577:
.LBI1577:
	.loc 9 86 12 view .LVU789
.LBB1578:
	.loc 9 86 24 view .LVU790
	.loc 9 86 24 is_stmt 0 view .LVU791
.LBE1578:
.LBE1577:
	.loc 9 117 32 discriminator 1 view .LVU792
	movs	r3, r4
	movs	r2, r5
	mov	r1, r8
	ldr	r0, [r6, #4]
.LVL257:
	.loc 9 117 32 discriminator 1 view .LVU793
	bl	lfs_file_open
.LVL258:
	.loc 9 118 9 is_stmt 1 view .LVU794
	cmp	r0, #0
	bne	.L180
	.loc 9 119 13 view .LVU795
	.loc 9 119 19 is_stmt 0 view .LVU796
	mov	r3, r8
	str	r3, [r7]
	.loc 9 120 13 is_stmt 1 view .LVU797
.LVL259:
.L175:
	.loc 9 125 5 is_stmt 0 view .LVU798
	@ sp needed
.LVL260:
.LVL261:
.LVL262:
.LVL263:
.LVL264:
	.loc 9 125 5 view .LVU799
	pop	{r7}
	mov	r8, r7
	pop	{r4, r5, r6, r7, pc}
.LVL265:
.L182:
	.loc 9 102 23 view .LVU800
	movs	r4, #3
	b	.L176
.LVL266:
.L180:
	.loc 9 122 13 is_stmt 1 view .LVU801
	.loc 9 122 20 is_stmt 0 discriminator 1 view .LVU802
	mov	r0, r8
.LVL267:
	.loc 9 122 20 discriminator 1 view .LVU803
	movs	r1, #84
	bl	_ZdlPvj
.LVL268:
	.loc 9 123 13 is_stmt 1 view .LVU804
	.loc 9 123 21 is_stmt 0 view .LVU805
	movs	r0, #1
	rsbs	r0, r0, #0
	b	.L175
	.cfi_endproc
.LFE765:
	.size	_ZN13LittleFsVNode9open_fileEPKciPPv, .-_ZN13LittleFsVNode9open_fileEPKciPPv
	.section	.text._ZN16FlashBlockDeviceD2Ev,"axG",%progbits,_ZN16FlashBlockDeviceD5Ev,comdat
	.align	1
	.p2align 2,,3
	.weak	_ZN16FlashBlockDeviceD2Ev
	.syntax unified
	.code	16
	.thumb_func
	.type	_ZN16FlashBlockDeviceD2Ev, %function
_ZN16FlashBlockDeviceD2Ev:
.LVL269:
.LFB713:
	.loc 8 26 5 is_stmt 1 view -0
	.cfi_startproc
	@ args = 0, pretend = 0, frame = 0
	@ frame_needed = 0, uses_anonymous_args = 0
.LBB1584:
	.loc 8 26 25 is_stmt 0 view .LVU807
	ldr	r3, .L203
.LBE1584:
	.loc 8 26 5 view .LVU808
	push	{r4, lr}
	.cfi_def_cfa_offset 8
	.cfi_offset 4, -8
	.cfi_offset 14, -4
	.loc 8 26 5 view .LVU809
	movs	r4, r0
.LBB1589:
	.loc 8 26 25 view .LVU810
	str	r3, [r0]
	.loc 8 27 9 is_stmt 1 view .LVU811
	.loc 8 27 18 is_stmt 0 view .LVU812
	ldr	r0, [r0, #16]
.LVL270:
	.loc 8 27 9 view .LVU813
	cmp	r0, #0
	beq	.L195
	.loc 8 27 18 discriminator 1 view .LVU814
	bl	_ZdaPv
.LVL271:
.L195:
.LBB1585:
.LBI1585:
	.loc 3 53 7 is_stmt 1 view .LVU815
.LBB1586:
.LBI1586:
	.loc 3 26 13 view .LVU816
.LBB1587:
	.loc 3 26 23 is_stmt 0 view .LVU817
	ldr	r3, .L203+4
	.loc 3 27 13 view .LVU818
	ldr	r0, [r4, #12]
	.loc 3 26 23 view .LVU819
	str	r3, [r4]
	.loc 3 27 9 is_stmt 1 view .LVU820
	cmp	r0, #0
	beq	.L196
	.loc 3 27 24 discriminator 1 view .LVU821
	.loc 3 27 28 is_stmt 0 discriminator 1 view .LVU822
	bl	free
.LVL272:
.L196:
.LBB1588:
.LBI1588:
	.loc 2 8 13 is_stmt 1 view .LVU823
	.loc 2 8 13 is_stmt 0 view .LVU824
.LBE1588:
.LBE1587:
.LBE1586:
.LBE1585:
.LBE1589:
	.loc 8 28 5 view .LVU825
	@ sp needed
	movs	r0, r4
.LVL273:
	.loc 8 28 5 view .LVU826
	pop	{r4, pc}
.L204:
	.align	2
.L203:
	.word	_ZTV16FlashBlockDevice+8
	.word	_ZTV6Device+8
	.cfi_endproc
.LFE713:
	.size	_ZN16FlashBlockDeviceD2Ev, .-_ZN16FlashBlockDeviceD2Ev
	.weak	_ZN16FlashBlockDeviceD1Ev
	.thumb_set _ZN16FlashBlockDeviceD1Ev,_ZN16FlashBlockDeviceD2Ev
	.text
	.align	1
	.p2align 2,,3
	.syntax unified
	.code	16
	.thumb_func
	.type	_ZN12TimerManager8instanceEv.part.0, %function
_ZN12TimerManager8instanceEv.part.0:
.LFB1056:
	.file 14 "J:\\PROJECT\\auroraOS\\kernel/timer.hpp"
	.loc 14 40 26 is_stmt 1 view -0
	.cfi_startproc
	@ args = 0, pretend = 0, frame = 0
	@ frame_needed = 0, uses_anonymous_args = 0
	@ link register save eliminated.
.LVL274:
.LBB1597:
.LBI1597:
	.loc 14 35 5 view .LVU828
.LBB1598:
.LBB1599:
.LBB1600:
.LBI1600:
	.file 15 "J:\\PROJECT\\auroraOS\\kernel/semaphore.hpp"
	.loc 15 16 15 view .LVU829
.LBB1601:
.LBB1602:
	.loc 15 16 47 is_stmt 0 view .LVU830
	movs	r2, #0
.LBE1602:
.LBE1601:
.LBE1600:
.LBE1599:
.LBE1598:
.LBE1597:
	.loc 14 43 5 view .LVU831
	@ sp needed
.LBB1609:
.LBB1608:
.LBB1607:
.LBB1605:
.LBB1604:
.LBB1603:
	.loc 15 16 47 view .LVU832
	movs	r1, #192
	ldr	r3, .L206
	str	r2, [r3, r1]
	.loc 15 16 64 view .LVU833
	adds	r1, r1, #4
	str	r2, [r3, r1]
.LVL275:
	.loc 15 16 64 view .LVU834
.LBE1603:
.LBE1604:
.LBE1605:
	.loc 14 35 20 discriminator 1 view .LVU835
	adds	r1, r1, #4
	str	r2, [r3, r1]
.LVL276:
.LBB1606:
	.loc 14 36 27 is_stmt 1 discriminator 1 view .LVU836
	.loc 14 36 46 discriminator 3 view .LVU837
	.loc 14 36 64 is_stmt 0 discriminator 3 view .LVU838
	subs	r1, r1, #152
	strb	r2, [r3, r1]
	adds	r1, r1, #24
	strb	r2, [r3, r1]
	adds	r1, r1, #24
	strb	r2, [r3, r1]
	adds	r1, r1, #24
	strb	r2, [r3, r1]
	adds	r1, r1, #24
	strb	r2, [r3, r1]
	adds	r1, r1, #24
	strb	r2, [r3]
	.loc 14 36 9 is_stmt 1 discriminator 3 view .LVU839
.LVL277:
	.loc 14 36 27 discriminator 1 view .LVU840
	.loc 14 36 46 discriminator 3 view .LVU841
	.loc 14 36 64 is_stmt 0 discriminator 3 view .LVU842
	strb	r2, [r3, #24]
	.loc 14 36 9 is_stmt 1 discriminator 3 view .LVU843
.LVL278:
	.loc 14 36 27 discriminator 1 view .LVU844
	.loc 14 36 46 discriminator 3 view .LVU845
	.loc 14 36 9 discriminator 3 view .LVU846
	.loc 14 36 27 discriminator 1 view .LVU847
	.loc 14 36 46 discriminator 3 view .LVU848
	.loc 14 36 9 discriminator 3 view .LVU849
	.loc 14 36 27 discriminator 1 view .LVU850
	.loc 14 36 46 discriminator 3 view .LVU851
	.loc 14 36 9 discriminator 3 view .LVU852
	.loc 14 36 27 discriminator 1 view .LVU853
	.loc 14 36 46 discriminator 3 view .LVU854
	.loc 14 36 9 discriminator 3 view .LVU855
	.loc 14 36 27 discriminator 1 view .LVU856
	.loc 14 36 46 discriminator 3 view .LVU857
	.loc 14 36 9 discriminator 3 view .LVU858
	.loc 14 36 27 discriminator 1 view .LVU859
	.loc 14 36 46 discriminator 3 view .LVU860
	.loc 14 36 64 is_stmt 0 discriminator 3 view .LVU861
	strb	r2, [r3, r1]
	.loc 14 36 9 is_stmt 1 discriminator 3 view .LVU862
.LVL279:
	.loc 14 36 27 discriminator 1 view .LVU863
	.loc 14 36 27 is_stmt 0 discriminator 1 view .LVU864
.LBE1606:
.LBE1607:
.LBE1608:
.LBE1609:
	.loc 14 41 29 discriminator 1 view .LVU865
	ldr	r3, .L206+4
	adds	r2, r2, #1
	str	r2, [r3]
	.loc 14 43 5 view .LVU866
	bx	lr
.L207:
	.align	2
.L206:
	.word	_ZZN12TimerManager8instanceEvE3mgr
	.word	_ZGVZN12TimerManager8instanceEvE3mgr
	.cfi_endproc
.LFE1056:
	.size	_ZN12TimerManager8instanceEv.part.0, .-_ZN12TimerManager8instanceEv.part.0
	.section	.text._ZN19AccelerometerSensor4readEP10SensorData,"axG",%progbits,_ZN19AccelerometerSensor4readEP10SensorData,comdat
	.align	1
	.p2align 2,,3
	.weak	_ZN19AccelerometerSensor4readEP10SensorData
	.syntax unified
	.code	16
	.thumb_func
	.type	_ZN19AccelerometerSensor4readEP10SensorData, %function
_ZN19AccelerometerSensor4readEP10SensorData:
.LVL280:
.LFB654:
	.loc 6 142 10 is_stmt 1 view -0
	.cfi_startproc
	@ args = 0, pretend = 0, frame = 0
	@ frame_needed = 0, uses_anonymous_args = 0
	.loc 6 143 9 view .LVU868
	.loc 6 142 10 is_stmt 0 view .LVU869
	push	{r4, r5, r6, r7, lr}
	.cfi_def_cfa_offset 20
	.cfi_offset 4, -20
	.cfi_offset 5, -16
	.cfi_offset 6, -12
	.cfi_offset 7, -8
	.cfi_offset 14, -4
	mov	lr, r9
	mov	r7, r8
	push	{r7, lr}
	.cfi_def_cfa_offset 28
	.cfi_offset 8, -28
	.cfi_offset 9, -24
	.loc 6 142 10 view .LVU870
	movs	r6, r0
	.loc 6 143 14 view .LVU871
	ldrb	r0, [r0, #6]
.LVL281:
	.loc 6 143 9 view .LVU872
	cmp	r0, #0
	beq	.L232
	.loc 6 143 29 discriminator 2 view .LVU873
	cmp	r1, #0
	beq	.L228
	.loc 6 146 9 is_stmt 1 view .LVU874
.LVL282:
	.loc 6 147 9 view .LVU875
	.loc 6 147 13 is_stmt 0 view .LVU876
	movs	r3, #32
	.loc 6 147 9 view .LVU877
	ldrb	r3, [r6, r3]
	cmp	r3, #0
	bne	.L210
	.loc 6 154 9 is_stmt 1 view .LVU878
.LVL283:
.LBB1616:
.LBI1616:
	.loc 6 100 13 view .LVU879
.LBB1617:
	.loc 6 101 9 view .LVU880
.LBE1617:
.LBE1616:
	.loc 6 146 33 is_stmt 0 view .LVU881
	movs	r3, #250
	lsls	r3, r3, #2
	mov	r9, r3
	.loc 6 146 25 view .LVU882
	movs	r3, #0
	mov	r8, r3
	.loc 6 146 17 view .LVU883
	mov	ip, r3
	.loc 6 162 17 view .LVU884
	ldr	r7, [r6, #12]
.LVL284:
.LBB1631:
.LBB1626:
.LBB1618:
.LBB1619:
	.loc 6 103 20 is_stmt 1 discriminator 1 view .LVU885
.LBE1619:
.LBE1618:
.LBE1626:
.LBE1631:
	.loc 6 162 17 is_stmt 0 view .LVU886
	ldr	r4, .L245
.LVL285:
.L211:
	.loc 6 146 17 view .LVU887
	movs	r3, #128
	lsls	r3, r3, #23
.LVL286:
.L214:
.LBB1632:
.LBB1627:
.LBB1623:
.LBB1620:
	.loc 6 103 27 is_stmt 1 discriminator 2 view .LVU888
	.loc 6 103 31 is_stmt 0 discriminator 2 view .LVU889
	asrs	r3, r3, #2
.LVL287:
	.loc 6 103 20 is_stmt 1 discriminator 1 view .LVU890
	cmp	r3, r4
	bgt	.L214
.LVL288:
	.loc 6 104 20 view .LVU891
	cmp	r3, #0
	beq	.L215
.LVL289:
.L213:
	.loc 6 102 17 is_stmt 0 view .LVU892
	movs	r2, #0
.L217:
.LVL290:
	.loc 6 105 13 is_stmt 1 view .LVU893
	.loc 6 105 28 is_stmt 0 view .LVU894
	adds	r5, r3, r2
	.loc 6 107 28 view .LVU895
	asrs	r2, r2, #1
.LVL291:
	.loc 6 105 13 view .LVU896
	cmp	r5, r4
	bgt	.L216
.LVL292:
	.loc 6 106 17 is_stmt 1 view .LVU897
	.loc 6 106 21 is_stmt 0 view .LVU898
	subs	r4, r4, r5
.LVL293:
	.loc 6 107 17 is_stmt 1 view .LVU899
	.loc 6 107 21 is_stmt 0 view .LVU900
	adds	r2, r2, r3
.LVL294:
.L216:
	.loc 6 111 13 is_stmt 1 view .LVU901
	.loc 6 111 17 is_stmt 0 view .LVU902
	asrs	r3, r3, #2
.LVL295:
	.loc 6 104 20 is_stmt 1 view .LVU903
	bne	.L217
.LVL296:
	.loc 6 104 20 is_stmt 0 view .LVU904
.LBE1620:
.LBE1623:
.LBE1627:
.LBE1632:
	.loc 6 159 9 is_stmt 1 view .LVU905
	.loc 6 160 9 view .LVU906
	.loc 6 162 9 view .LVU907
	cmp	r7, #1
	beq	.L218
	cmp	r7, #2
	beq	.L219
	cmp	r7, #0
	bne	.L220
	.loc 6 163 13 view .LVU908
	.loc 6 164 17 view .LVU909
	movs	r3, #150
	lsls	r3, r3, #3
	cmp	r2, r3
	ble	.L221
	.loc 6 165 21 view .LVU910
	.loc 6 165 33 is_stmt 0 view .LVU911
	movs	r3, #1
	str	r3, [r6, #12]
.L221:
.LBB1633:
.LBB1628:
.LBB1624:
.LBB1621:
	.loc 6 102 17 view .LVU912
	movs	r7, r2
.LVL297:
.L224:
	.loc 6 102 17 view .LVU913
.LBE1621:
.LBE1624:
.LBE1628:
.LBE1633:
	.loc 6 162 9 view .LVU914
	movs	r2, r7
	b	.L220
.LVL298:
.L219:
	.loc 6 173 13 is_stmt 1 view .LVU915
	.loc 6 174 17 view .LVU916
	.loc 6 174 38 is_stmt 0 view .LVU917
	ldr	r4, .L245+4
	adds	r4, r2, r4
	.loc 6 174 17 view .LVU918
	cmp	r4, #200
	bhi	.L220
	.loc 6 175 21 is_stmt 1 view .LVU919
	.loc 6 175 35 is_stmt 0 view .LVU920
	ldr	r4, [r6, #8]
	.loc 6 176 33 view .LVU921
	str	r3, [r6, #12]
	.loc 6 175 35 view .LVU922
	adds	r4, r4, #1
	str	r4, [r6, #8]
	.loc 6 176 21 is_stmt 1 view .LVU923
.LVL299:
.L220:
	.loc 6 181 9 view .LVU924
	.loc 6 183 24 is_stmt 0 view .LVU925
	movs	r3, #1
	.loc 6 181 25 view .LVU926
	str	r2, [r6, #16]
	.loc 6 183 9 is_stmt 1 view .LVU927
	.loc 6 183 24 is_stmt 0 view .LVU928
	strb	r3, [r1]
	.loc 6 184 9 is_stmt 1 view .LVU929
	.loc 6 184 35 is_stmt 0 view .LVU930
	mov	r3, ip
	str	r3, [r1, #8]
	.loc 6 185 9 is_stmt 1 view .LVU931
	.loc 6 185 35 is_stmt 0 view .LVU932
	mov	r3, r8
	str	r3, [r1, #12]
	.loc 6 186 9 is_stmt 1 view .LVU933
	.loc 6 186 35 is_stmt 0 view .LVU934
	mov	r3, r9
	str	r3, [r1, #16]
	.loc 6 187 9 is_stmt 1 view .LVU935
.LVL300:
.L232:
	.loc 6 188 5 is_stmt 0 view .LVU936
	@ sp needed
.LVL301:
	.loc 6 188 5 view .LVU937
	pop	{r6, r7}
	mov	r9, r7
	mov	r8, r6
	pop	{r4, r5, r6, r7, pc}
.LVL302:
.L210:
	.loc 6 148 13 is_stmt 1 view .LVU938
	.loc 6 148 16 is_stmt 0 view .LVU939
	ldr	r3, [r6, #20]
	.loc 6 162 17 view .LVU940
	ldr	r7, [r6, #12]
	.loc 6 148 16 view .LVU941
	mov	ip, r3
.LVL303:
	.loc 6 149 13 is_stmt 1 view .LVU942
	.loc 6 149 16 is_stmt 0 view .LVU943
	ldr	r3, [r6, #24]
.LVL304:
	.loc 6 154 44 view .LVU944
	mov	r4, ip
	.loc 6 149 16 view .LVU945
	mov	r8, r3
.LVL305:
	.loc 6 150 13 is_stmt 1 view .LVU946
	.loc 6 150 16 is_stmt 0 view .LVU947
	ldr	r3, [r6, #28]
.LVL306:
	.loc 6 154 44 view .LVU948
	muls	r4, r4
	.loc 6 150 16 view .LVU949
	mov	r9, r3
.LVL307:
	.loc 6 154 54 view .LVU950
	mov	r3, r8
.LVL308:
	.loc 6 154 54 view .LVU951
	muls	r3, r3
	.loc 6 154 49 view .LVU952
	adds	r4, r4, r3
	.loc 6 154 64 view .LVU953
	mov	r3, r9
	muls	r3, r3
	.loc 6 154 40 view .LVU954
	adds	r4, r4, r3
	.loc 6 154 9 is_stmt 1 view .LVU955
.LVL309:
.LBB1634:
	.loc 6 100 13 view .LVU956
.LBB1629:
	.loc 6 101 9 view .LVU957
	cmp	r4, #0
	bne	.L244
.LVL310:
	.loc 6 101 9 is_stmt 0 view .LVU958
.LBE1629:
.LBE1634:
	.loc 6 159 9 is_stmt 1 view .LVU959
	.loc 6 160 9 view .LVU960
	.loc 6 162 9 view .LVU961
	cmp	r7, #0
	beq	.L224
	cmp	r7, #1
	beq	.L225
.LVL311:
.L231:
	.loc 6 162 9 is_stmt 0 view .LVU962
	movs	r2, #0
	b	.L220
.LVL312:
.L244:
.LBB1635:
.LBB1630:
.LBB1625:
.LBB1622:
	.loc 6 103 20 is_stmt 1 discriminator 1 view .LVU963
	movs	r3, #128
.LVL313:
	.loc 6 103 20 is_stmt 0 discriminator 1 view .LVU964
	lsls	r3, r3, #23
	cmp	r4, r3
	blt	.L211
	b	.L213
.LVL314:
.L215:
	.loc 6 103 20 discriminator 1 view .LVU965
.LBE1622:
.LBE1625:
.LBE1630:
.LBE1635:
	.loc 6 159 9 is_stmt 1 view .LVU966
	.loc 6 160 9 view .LVU967
	.loc 6 162 9 view .LVU968
	cmp	r7, #1
	bne	.L231
	movs	r4, #0
.LVL315:
.L225:
	.loc 6 170 21 view .LVU969
	.loc 6 170 33 is_stmt 0 view .LVU970
	movs	r3, #2
	movs	r2, r4
	str	r3, [r6, #12]
	b	.L220
.LVL316:
.L228:
	.loc 6 143 50 discriminator 3 view .LVU971
	movs	r0, #0
	b	.L232
.LVL317:
.L218:
	.loc 6 168 13 is_stmt 1 view .LVU972
	.loc 6 169 17 view .LVU973
	movs	r3, #200
	movs	r4, r2
	lsls	r3, r3, #2
	cmp	r2, r3
	bge	.L220
	.loc 6 169 17 is_stmt 0 view .LVU974
	b	.L225
.L246:
	.align	2
.L245:
	.word	1000000
	.word	-900
	.cfi_endproc
.LFE654:
	.size	_ZN19AccelerometerSensor4readEP10SensorData, .-_ZN19AccelerometerSensor4readEP10SensorData
	.text
	.align	1
	.p2align 2,,3
	.syntax unified
	.code	16
	.thumb_func
	.type	_ZN13SensorManager8instanceEv.part.0, %function
_ZN13SensorManager8instanceEv.part.0:
.LFB1059:
	.loc 6 212 27 is_stmt 1 view -0
	.cfi_startproc
	@ args = 0, pretend = 0, frame = 0
	@ frame_needed = 0, uses_anonymous_args = 0
.LVL318:
.LBB1662:
.LBI1662:
	.loc 6 209 5 view .LVU976
.LBB1663:
.LBB1664:
	.loc 6 209 23 is_stmt 0 view .LVU977
	movs	r3, #160
.LBE1664:
.LBE1663:
.LBE1662:
	.loc 6 212 27 view .LVU978
	push	{r4, r5, r6, lr}
	.cfi_def_cfa_offset 16
	.cfi_offset 4, -16
	.cfi_offset 5, -12
	.cfi_offset 6, -8
	.cfi_offset 14, -4
.LBB1700:
.LBB1698:
.LBB1696:
	.loc 6 209 23 view .LVU979
	movs	r4, #0
	movs	r5, #0
.LBB1665:
.LBB1666:
.LBB1667:
	.loc 6 55 83 discriminator 1 view .LVU980
	movs	r2, #161
	.loc 6 55 25 discriminator 1 view .LVU981
	movs	r1, #25
.LBE1667:
.LBE1666:
.LBE1665:
	.loc 6 209 23 view .LVU982
	ldr	r0, .L250
	lsls	r3, r3, #3
	adds	r3, r0, r3
	str	r4, [r3]
	str	r5, [r3, #4]
.LVL319:
.LBB1671:
.LBI1665:
	.loc 6 55 5 is_stmt 1 view .LVU983
.LBB1670:
.LBB1669:
.LBB1668:
.LBI1668:
	.loc 6 35 7 view .LVU984
	.loc 6 35 7 is_stmt 0 view .LVU985
.LBE1668:
	.loc 6 55 83 discriminator 1 view .LVU986
	ldr	r3, .L250+4
	lsls	r2, r2, #3
	str	r3, [r0, r2]
	.loc 6 55 25 discriminator 1 view .LVU987
	ldr	r3, .L250+8
	.loc 6 55 66 discriminator 1 view .LVU988
	movs	r6, #75
	.loc 6 55 25 discriminator 1 view .LVU989
	strh	r1, [r0, r3]
	.loc 6 55 43 discriminator 1 view .LVU990
	movs	r3, #0
	ldr	r2, .L250+12
	strb	r3, [r0, r2]
	.loc 6 55 66 discriminator 1 view .LVU991
	adds	r2, r2, #2
	str	r6, [r0, r2]
.LVL320:
	.loc 6 55 66 discriminator 1 view .LVU992
.LBE1669:
.LBE1670:
.LBE1671:
.LBB1672:
.LBI1672:
	.loc 6 129 5 is_stmt 1 view .LVU993
.LBB1673:
.LBB1674:
.LBB1675:
.LBI1675:
	.loc 6 35 7 view .LVU994
	.loc 6 35 7 is_stmt 0 view .LVU995
.LBE1675:
	.loc 6 131 80 discriminator 1 view .LVU996
	ldr	r2, .L250+16
	ldr	r6, .L250+20
	str	r2, [r0, r6]
	.loc 6 130 9 view .LVU997
	movs	r2, #163
	lsls	r2, r2, #3
	strh	r1, [r0, r2]
	.loc 6 130 27 view .LVU998
	ldr	r2, .L250+24
	.loc 6 131 60 view .LVU999
	ldr	r1, .L250+28
	.loc 6 130 27 view .LVU1000
	strb	r3, [r0, r2]
	.loc 6 131 9 view .LVU1001
	ldr	r2, .L250+32
	str	r3, [r0, r2]
	.loc 6 131 28 view .LVU1002
	adds	r2, r2, #4
	str	r3, [r0, r2]
	.loc 6 131 60 view .LVU1003
	subs	r2, r2, #57
	subs	r2, r2, #255
	str	r2, [r0, r1]
	.loc 6 131 80 view .LVU1004
	adds	r1, r1, #4
	str	r3, [r0, r1]
	ldr	r1, .L250+36
	str	r3, [r0, r1]
	adds	r1, r1, #4
	str	r2, [r0, r1]
	ldr	r2, .L250+40
.LBE1674:
.LBE1673:
.LBE1672:
.LBB1678:
.LBB1679:
.LBB1680:
.LBB1681:
	.file 16 "J:/PROJECT/auroraOS/drivers/sensor/health_algo.hpp"
	.loc 16 130 11 view .LVU1005
	movs	r1, #250
.LBE1681:
.LBE1680:
.LBE1679:
.LBE1678:
.LBB1694:
.LBB1677:
.LBB1676:
	.loc 6 131 80 view .LVU1006
	strb	r3, [r0, r2]
.LVL321:
	.loc 6 131 80 view .LVU1007
.LBE1676:
.LBE1677:
.LBE1694:
.LBB1695:
.LBI1678:
	.loc 16 399 5 is_stmt 1 view .LVU1008
.LBB1685:
.LBI1685:
	.loc 16 50 5 view .LVU1009
.LBB1686:
.LBB1687:
	.loc 16 51 11 is_stmt 0 view .LVU1010
	adds	r2, r2, #36
	adds	r2, r0, r2
	str	r4, [r2]
	str	r5, [r2, #4]
	.loc 16 51 32 view .LVU1011
	movs	r2, #172
	lsls	r2, r2, #3
	adds	r2, r0, r2
	str	r4, [r2]
	str	r5, [r2, #4]
	.loc 16 51 48 view .LVU1012
	movs	r2, #173
	lsls	r2, r2, #3
	str	r3, [r0, r2]
.LVL322:
.LBB1688:
	.loc 16 53 27 is_stmt 1 discriminator 1 view .LVU1013
	.loc 16 53 47 discriminator 3 view .LVU1014
	.loc 16 53 58 is_stmt 0 discriminator 3 view .LVU1015
	subs	r2, r2, #48
	str	r3, [r0, r2]
	.loc 16 53 9 is_stmt 1 discriminator 3 view .LVU1016
.LVL323:
	.loc 16 53 27 discriminator 1 view .LVU1017
	.loc 16 53 47 discriminator 3 view .LVU1018
	.loc 16 53 58 is_stmt 0 discriminator 3 view .LVU1019
	ldr	r2, .L250+44
	str	r3, [r0, r2]
	.loc 16 53 9 is_stmt 1 discriminator 3 view .LVU1020
.LVL324:
	.loc 16 53 27 discriminator 1 view .LVU1021
	.loc 16 53 47 discriminator 3 view .LVU1022
	.loc 16 53 58 is_stmt 0 discriminator 3 view .LVU1023
	adds	r2, r2, #4
	str	r3, [r0, r2]
	.loc 16 53 9 is_stmt 1 discriminator 3 view .LVU1024
.LVL325:
	.loc 16 53 27 discriminator 1 view .LVU1025
	.loc 16 53 47 discriminator 3 view .LVU1026
	.loc 16 53 58 is_stmt 0 discriminator 3 view .LVU1027
	ldr	r2, .L250+48
	str	r3, [r0, r2]
	.loc 16 53 9 is_stmt 1 discriminator 3 view .LVU1028
.LVL326:
	.loc 16 53 27 discriminator 1 view .LVU1029
	.loc 16 53 47 discriminator 3 view .LVU1030
	.loc 16 53 58 is_stmt 0 discriminator 3 view .LVU1031
	adds	r2, r2, #4
	str	r3, [r0, r2]
	.loc 16 53 9 is_stmt 1 discriminator 3 view .LVU1032
.LVL327:
	.loc 16 53 27 discriminator 1 view .LVU1033
	.loc 16 53 47 discriminator 3 view .LVU1034
	.loc 16 53 58 is_stmt 0 discriminator 3 view .LVU1035
	ldr	r2, .L250+52
	str	r3, [r0, r2]
	.loc 16 53 9 is_stmt 1 discriminator 3 view .LVU1036
.LVL328:
	.loc 16 53 27 discriminator 1 view .LVU1037
	.loc 16 53 47 discriminator 3 view .LVU1038
	.loc 16 53 58 is_stmt 0 discriminator 3 view .LVU1039
	adds	r2, r2, #4
	str	r3, [r0, r2]
	.loc 16 53 9 is_stmt 1 discriminator 3 view .LVU1040
.LVL329:
	.loc 16 53 27 discriminator 1 view .LVU1041
	.loc 16 53 47 discriminator 3 view .LVU1042
	.loc 16 53 58 is_stmt 0 discriminator 3 view .LVU1043
	ldr	r2, .L250+56
	str	r3, [r0, r2]
	.loc 16 53 9 is_stmt 1 discriminator 3 view .LVU1044
.LVL330:
	.loc 16 53 27 discriminator 1 view .LVU1045
	.loc 16 53 27 is_stmt 0 discriminator 1 view .LVU1046
.LBE1688:
.LBE1687:
.LBE1686:
.LBE1685:
.LBB1689:
.LBI1679:
	.loc 16 127 5 is_stmt 1 view .LVU1047
.LBB1684:
.LBB1683:
	.loc 16 128 11 is_stmt 0 view .LVU1048
	adds	r2, r2, #28
	str	r3, [r0, r2]
	.loc 16 129 11 view .LVU1049
	ldr	r2, .L250+60
	strb	r3, [r0, r2]
	.loc 16 130 11 view .LVU1050
	adds	r2, r2, #4
	str	r1, [r0, r2]
	.loc 16 131 11 view .LVU1051
	ldr	r2, .L250+64
	str	r3, [r0, r2]
	.loc 16 132 11 view .LVU1052
	adds	r2, r2, #36
	str	r3, [r0, r2]
	.loc 16 132 26 view .LVU1053
	ldr	r2, .L250+68
	str	r3, [r0, r2]
	.loc 16 132 42 view .LVU1054
	adds	r2, r2, #4
	adds	r2, r0, r2
	str	r4, [r2]
	str	r5, [r2, #4]
	.loc 16 133 11 view .LVU1055
	movs	r2, #182
	movs	r4, #150
	movs	r5, #200
	lsls	r2, r2, #3
	adds	r2, r0, r2
	lsls	r4, r4, #3
	lsls	r5, r5, #2
	str	r4, [r2]
	str	r5, [r2, #4]
.LVL331:
.LBB1682:
	.loc 16 136 27 is_stmt 1 discriminator 1 view .LVU1056
	.loc 16 136 51 discriminator 3 view .LVU1057
	.loc 16 136 67 is_stmt 0 discriminator 3 view .LVU1058
	movs	r2, #176
	lsls	r2, r2, #3
	str	r3, [r0, r2]
	.loc 16 136 9 is_stmt 1 discriminator 3 view .LVU1059
.LVL332:
	.loc 16 136 27 discriminator 1 view .LVU1060
	.loc 16 136 51 discriminator 3 view .LVU1061
	.loc 16 136 67 is_stmt 0 discriminator 3 view .LVU1062
	ldr	r2, .L250+72
	str	r3, [r0, r2]
	.loc 16 136 9 is_stmt 1 discriminator 3 view .LVU1063
.LVL333:
	.loc 16 136 27 discriminator 1 view .LVU1064
	.loc 16 136 51 discriminator 3 view .LVU1065
	.loc 16 136 67 is_stmt 0 discriminator 3 view .LVU1066
	adds	r2, r2, #4
	str	r3, [r0, r2]
	.loc 16 136 9 is_stmt 1 discriminator 3 view .LVU1067
.LVL334:
	.loc 16 136 27 discriminator 1 view .LVU1068
	.loc 16 136 51 discriminator 3 view .LVU1069
	.loc 16 136 67 is_stmt 0 discriminator 3 view .LVU1070
	ldr	r2, .L250+76
	str	r3, [r0, r2]
	.loc 16 136 9 is_stmt 1 discriminator 3 view .LVU1071
.LVL335:
	.loc 16 136 27 discriminator 1 view .LVU1072
	.loc 16 136 51 discriminator 3 view .LVU1073
	.loc 16 136 67 is_stmt 0 discriminator 3 view .LVU1074
	adds	r2, r2, #4
	str	r3, [r0, r2]
	.loc 16 136 9 is_stmt 1 discriminator 3 view .LVU1075
.LVL336:
	.loc 16 136 27 discriminator 1 view .LVU1076
	.loc 16 136 51 discriminator 3 view .LVU1077
	.loc 16 136 67 is_stmt 0 discriminator 3 view .LVU1078
	ldr	r2, .L250+80
	str	r3, [r0, r2]
	.loc 16 136 9 is_stmt 1 discriminator 3 view .LVU1079
.LVL337:
	.loc 16 136 27 discriminator 1 view .LVU1080
	.loc 16 136 51 discriminator 3 view .LVU1081
	.loc 16 136 67 is_stmt 0 discriminator 3 view .LVU1082
	adds	r2, r2, #4
	str	r3, [r0, r2]
	.loc 16 136 9 is_stmt 1 discriminator 3 view .LVU1083
.LVL338:
	.loc 16 136 27 discriminator 1 view .LVU1084
	.loc 16 136 51 discriminator 3 view .LVU1085
	.loc 16 136 67 is_stmt 0 discriminator 3 view .LVU1086
	ldr	r2, .L250+84
	str	r3, [r0, r2]
	.loc 16 136 9 is_stmt 1 discriminator 3 view .LVU1087
.LVL339:
	.loc 16 136 27 discriminator 1 view .LVU1088
	.loc 16 136 27 is_stmt 0 discriminator 1 view .LVU1089
.LBE1682:
.LBE1683:
.LBE1684:
.LBE1689:
.LBB1690:
.LBI1690:
	.loc 16 280 5 is_stmt 1 view .LVU1090
.LBB1691:
.LBB1692:
	.loc 16 281 11 is_stmt 0 view .LVU1091
	adds	r2, r2, #28
	strb	r3, [r0, r2]
	.loc 16 282 11 view .LVU1092
	ldr	r2, .L250+88
	str	r3, [r0, r2]
	.loc 16 283 11 view .LVU1093
	adds	r2, r2, #4
	str	r3, [r0, r2]
	.loc 16 284 11 view .LVU1094
	adds	r2, r2, #64
	str	r3, [r0, r2]
	.loc 16 285 11 view .LVU1095
	ldr	r2, .L250+92
	str	r3, [r0, r2]
	.loc 16 286 11 view .LVU1096
	adds	r2, r2, #4
	str	r3, [r0, r2]
	.loc 16 287 11 view .LVU1097
	ldr	r2, .L250+96
	str	r3, [r0, r2]
.LVL340:
.LBB1693:
	.loc 16 289 27 is_stmt 1 discriminator 1 view .LVU1098
	subs	r2, r2, #12
	adds	r1, r0, r2
	.loc 16 289 72 is_stmt 0 discriminator 3 view .LVU1099
	movs	r2, #0
	ldr	r3, .L250+100
	adds	r3, r0, r3
.LVL341:
.L248:
	.loc 16 289 53 is_stmt 1 discriminator 3 view .LVU1100
	.loc 16 289 72 is_stmt 0 discriminator 3 view .LVU1101
	stmia	r3!, {r2}
	.loc 16 289 9 is_stmt 1 discriminator 3 view .LVU1102
	.loc 16 289 27 discriminator 1 view .LVU1103
	cmp	r3, r1
	bne	.L248
.LVL342:
	.loc 16 289 27 is_stmt 0 discriminator 1 view .LVU1104
.LBE1693:
.LBE1692:
.LBE1691:
.LBE1690:
.LBE1695:
	.loc 6 209 43 discriminator 3 view .LVU1105
	movs	r3, #194
.LBE1696:
.LBE1698:
.LBE1700:
	.loc 6 215 5 view .LVU1106
	@ sp needed
.LBB1701:
.LBB1699:
.LBB1697:
	.loc 6 209 43 discriminator 3 view .LVU1107
	lsls	r3, r3, #3
	str	r2, [r0, r3]
.LVL343:
	.loc 6 209 43 discriminator 3 view .LVU1108
.LBE1697:
.LBE1699:
.LBE1701:
	.loc 6 213 30 discriminator 1 view .LVU1109
	movs	r2, #1
	ldr	r3, .L250+104
	ldr	r1, .L250+108
	str	r2, [r3]
	ldr	r2, .L250+112
	bl	__aeabi_atexit
.LVL344:
	.loc 6 215 5 view .LVU1110
	pop	{r4, r5, r6, pc}
.L251:
	.align	2
.L250:
	.word	_ZZN13SensorManager8instanceEvE7manager
	.word	_ZTV15HeartRateSensor+8
	.word	1292
	.word	1294
	.word	_ZTV19AccelerometerSensor+8
	.word	1300
	.word	1306
	.word	1316
	.word	1308
	.word	1324
	.word	1332
	.word	1340
	.word	1348
	.word	1356
	.word	1364
	.word	1396
	.word	1404
	.word	1444
	.word	1412
	.word	1420
	.word	1428
	.word	1436
	.word	1468
	.word	1540
	.word	1548
	.word	1476
	.word	_ZGVZN13SensorManager8instanceEvE7manager
	.word	_ZN13SensorManagerD1Ev
	.word	__dso_handle
	.cfi_endproc
.LFE1059:
	.size	_ZN13SensorManager8instanceEv.part.0, .-_ZN13SensorManager8instanceEv.part.0
	.align	1
	.p2align 2,,3
	.syntax unified
	.code	16
	.thumb_func
	.type	_ZN16FrameSchedulerV28instanceEv.part.0, %function
_ZN16FrameSchedulerV28instanceEv.part.0:
.LFB1070:
	.file 17 "J:\\PROJECT\\auroraOS\\kernel/frame_scheduler_v2.hpp"
	.loc 17 35 30 is_stmt 1 view -0
	.cfi_startproc
	@ args = 0, pretend = 0, frame = 0
	@ frame_needed = 0, uses_anonymous_args = 0
	@ link register save eliminated.
.LVL345:
.LBB1709:
.LBI1709:
	.loc 17 31 5 view .LVU1112
.LBB1710:
.LBB1711:
.LBB1712:
.LBI1712:
	.file 18 "J:/CODE/arm-gnu-toolchain/arm-none-eabi/include/c++/13.2.1/atomic"
	.loc 18 76 15 view .LVU1113
.LBB1713:
.LBI1713:
	.file 19 "J:/CODE/arm-gnu-toolchain/arm-none-eabi/include/c++/13.2.1/bits/atomic_base.h"
	.loc 19 362 17 view .LVU1114
	.loc 19 362 17 is_stmt 0 view .LVU1115
.LBE1713:
.LBE1712:
	.loc 17 31 26 view .LVU1116
	movs	r2, #30
.LBE1711:
.LBE1710:
.LBE1709:
	.loc 17 38 5 view .LVU1117
	@ sp needed
.LBB1718:
.LBB1717:
.LBB1714:
	.loc 17 31 69 view .LVU1118
	movs	r1, #0
	.loc 17 31 26 view .LVU1119
	ldr	r3, .L253
	str	r2, [r3]
	.loc 17 31 44 view .LVU1120
	adds	r2, r2, #3
	str	r2, [r3, #4]
.LBE1714:
	.loc 17 31 24 view .LVU1121
	subs	r2, r2, #32
.LBB1715:
	.loc 17 31 69 view .LVU1122
	str	r1, [r3, #8]
.LBE1715:
	.loc 17 31 24 view .LVU1123
	str	r2, [r3, #12]
.LBB1716:
	.loc 17 32 58 discriminator 1 view .LVU1124
	str	r1, [r3, #16]
.LVL346:
	.loc 17 32 58 discriminator 1 view .LVU1125
.LBE1716:
.LBE1717:
.LBE1718:
	.loc 17 36 33 discriminator 1 view .LVU1126
	ldr	r3, .L253+4
	str	r2, [r3]
	.loc 17 38 5 view .LVU1127
	bx	lr
.L254:
	.align	2
.L253:
	.word	_ZZN16FrameSchedulerV28instanceEvE2fs
	.word	_ZGVZN16FrameSchedulerV28instanceEvE2fs
	.cfi_endproc
.LFE1070:
	.size	_ZN16FrameSchedulerV28instanceEv.part.0, .-_ZN16FrameSchedulerV28instanceEv.part.0
	.section	.rodata.str1.4
	.align	2
.LC50:
	.ascii	"\015\012>>> [POSIX Signal Handler] SIGUSR1 intercep"
	.ascii	"ted asynchronously! <<<\015\012\000"
	.text
	.align	1
	.p2align 2,,3
	.syntax unified
	.code	16
	.thumb_func
	.type	_ZZ13receiver_taskvENUliE_4_FUNEi, %function
_ZZ13receiver_taskvENUliE_4_FUNEi:
.LFB897:
	.loc 1 204 21 is_stmt 1 view -0
	.cfi_startproc
	@ args = 0, pretend = 0, frame = 72
	@ frame_needed = 0, uses_anonymous_args = 0
.LBB1723:
.LBI1723:
	.loc 1 204 21 view .LVU1129
.LVL347:
.LBB1724:
	.loc 1 205 9 view .LVU1130
.LBE1724:
.LBE1723:
	.loc 1 204 21 is_stmt 0 view .LVU1131
	push	{r4, lr}
	.cfi_def_cfa_offset 8
	.cfi_offset 4, -8
	.cfi_offset 14, -4
.LBB1727:
.LBB1725:
	.loc 1 205 22 view .LVU1132
	movs	r1, #0
.LBE1725:
.LBE1727:
	.loc 1 204 21 view .LVU1133
	sub	sp, sp, #72
	.cfi_def_cfa_offset 80
.LBB1728:
.LBB1726:
	.loc 1 205 22 view .LVU1134
	ldr	r0, .L256
	bl	open
.LVL348:
	movs	r4, r0
.LVL349:
	.loc 1 206 9 is_stmt 1 view .LVU1135
	.loc 1 206 20 is_stmt 0 view .LVU1136
	movs	r2, #71
	mov	r0, sp
.LVL350:
	.loc 1 206 20 view .LVU1137
	ldr	r1, .L256+4
	bl	memcpy
.LVL351:
	.loc 1 207 9 is_stmt 1 view .LVU1138
	.loc 1 207 14 is_stmt 0 view .LVU1139
	movs	r2, #70
	mov	r1, sp
	movs	r0, r4
	bl	write
.LVL352:
	.loc 1 208 9 is_stmt 1 view .LVU1140
	.loc 1 208 14 is_stmt 0 view .LVU1141
	movs	r0, r4
	bl	close
.LVL353:
	.loc 1 208 14 view .LVU1142
.LBE1726:
.LBE1728:
	.loc 1 209 5 view .LVU1143
	add	sp, sp, #72
	@ sp needed
	pop	{r4, pc}
.L257:
	.align	2
.L256:
	.word	.LC2
	.word	.LC50
	.cfi_endproc
.LFE897:
	.size	_ZZ13receiver_taskvENUliE_4_FUNEi, .-_ZZ13receiver_taskvENUliE_4_FUNEi
	.section	.text._ZNK13LittleFsVNode8get_sizeEPv,"axG",%progbits,_ZNK13LittleFsVNode8get_sizeEPv,comdat
	.align	1
	.p2align 2,,3
	.weak	_ZNK13LittleFsVNode8get_sizeEPv
	.syntax unified
	.code	16
	.thumb_func
	.type	_ZNK13LittleFsVNode8get_sizeEPv, %function
_ZNK13LittleFsVNode8get_sizeEPv:
.LVL354:
.LFB769:
	.loc 9 152 9 is_stmt 1 view -0
	.cfi_startproc
	@ args = 0, pretend = 0, frame = 0
	@ frame_needed = 0, uses_anonymous_args = 0
	.loc 9 153 9 view .LVU1145
	.loc 9 152 9 is_stmt 0 view .LVU1146
	push	{r4, lr}
	.cfi_def_cfa_offset 8
	.cfi_offset 4, -8
	.cfi_offset 14, -4
	.loc 9 153 9 view .LVU1147
	cmp	r1, #0
	beq	.L260
.LVL355:
.LBB1735:
.LBI1735:
	.loc 9 152 9 is_stmt 1 view .LVU1148
.LBB1736:
	.loc 9 154 9 view .LVU1149
	.loc 9 155 9 view .LVU1150
.LBB1737:
.LBI1737:
	.loc 9 86 12 view .LVU1151
.LBB1738:
	.loc 9 86 24 view .LVU1152
	.loc 9 86 24 is_stmt 0 view .LVU1153
.LBE1738:
.LBE1737:
	.loc 9 155 29 discriminator 1 view .LVU1154
	ldr	r0, [r0, #4]
.LVL356:
	.loc 9 155 29 discriminator 1 view .LVU1155
	bl	lfs_file_size
.LVL357:
.L258:
	.loc 9 155 29 discriminator 1 view .LVU1156
.LBE1736:
.LBE1735:
	.loc 9 156 5 view .LVU1157
	@ sp needed
	pop	{r4, pc}
.LVL358:
.L260:
	.loc 9 153 27 discriminator 1 view .LVU1158
	movs	r0, #0
.LVL359:
	.loc 9 153 27 discriminator 1 view .LVU1159
	b	.L258
	.cfi_endproc
.LFE769:
	.size	_ZNK13LittleFsVNode8get_sizeEPv, .-_ZNK13LittleFsVNode8get_sizeEPv
	.text
	.align	1
	.p2align 2,,3
	.syntax unified
	.code	16
	.thumb_func
	.type	_ZN12TimerManager11start_timerEm9TimerTypePFvPvES1_.isra.0, %function
_ZN12TimerManager11start_timerEm9TimerTypePFvPvES1_.isra.0:
.LVL360:
.LFB1088:
	.loc 14 77 9 is_stmt 1 view -0
	.cfi_startproc
	@ args = 4, pretend = 0, frame = 0
	@ frame_needed = 0, uses_anonymous_args = 0
	.loc 14 78 9 view .LVU1161
.LBB1746:
.LBI1746:
	.file 20 "J:\\PROJECT\\auroraOS\\kernel/task.hpp"
	.loc 20 190 5 view .LVU1162
	.loc 20 190 18 view .LVU1163
.LBB1747:
.LBI1747:
	.file 21 "J:\\PROJECT\\auroraOS\\arch\\arm\\cortex-m\\cm0plus/arch_impl.hpp"
	.loc 21 51 21 view .LVU1164
.LBB1748:
	.loc 21 52 9 view .LVU1165
	.loc 21 53 9 view .LVU1166
.LBE1748:
.LBE1747:
.LBE1746:
	.loc 14 77 9 is_stmt 0 view .LVU1167
	push	{r4, r5, r6, lr}
	.cfi_def_cfa_offset 16
	.cfi_offset 4, -16
	.cfi_offset 5, -12
	.cfi_offset 6, -8
	.cfi_offset 14, -4
.LBB1751:
.LBB1750:
.LBB1749:
	.loc 21 53 9 view .LVU1168
	.syntax divided
@ 53 "J:\PROJECT\auroraOS\arch\arm\cortex-m\cm0plus/arch_impl.hpp" 1
	mrs ip, primask 
	cpsid i         
	
@ 0 "" 2
.LVL361:
	.loc 21 60 9 is_stmt 1 view .LVU1169
	.loc 21 60 9 is_stmt 0 view .LVU1170
	.thumb
	.syntax unified
.LBE1749:
.LBE1750:
.LBE1751:
	.loc 14 79 9 is_stmt 1 view .LVU1171
.LBB1752:
	.loc 14 79 27 discriminator 1 view .LVU1172
	.loc 14 79 18 is_stmt 0 view .LVU1173
	movs	r4, #0
	movs	r5, r0
.LVL362:
.L264:
	.loc 14 80 13 is_stmt 1 view .LVU1174
	ldrb	r6, [r5]
	cmp	r6, #0
	beq	.L266
	.loc 14 79 9 discriminator 2 view .LVU1175
	adds	r4, r4, #1
.LVL363:
	.loc 14 79 27 discriminator 1 view .LVU1176
	adds	r5, r5, #24
	cmp	r4, #8
	bne	.L264
.LVL364:
.L263:
	.loc 14 79 27 is_stmt 0 discriminator 1 view .LVU1177
.LBE1752:
.LBB1753:
.LBI1753:
	.loc 20 191 5 is_stmt 1 view .LVU1178
	.loc 20 191 19 view .LVU1179
.LBB1754:
.LBI1754:
	.loc 21 63 17 view .LVU1180
.LBB1755:
	.loc 21 64 9 view .LVU1181
	.syntax divided
@ 64 "J:\PROJECT\auroraOS\arch\arm\cortex-m\cm0plus/arch_impl.hpp" 1
	msr primask, ip 
	
@ 0 "" 2
.LVL365:
	.loc 21 64 9 is_stmt 0 view .LVU1182
	.thumb
	.syntax unified
.LBE1755:
.LBE1754:
.LBE1753:
	.loc 14 92 5 view .LVU1183
	@ sp needed
	pop	{r4, r5, r6, pc}
.LVL366:
.L266:
.LBB1756:
	.loc 14 81 17 is_stmt 1 view .LVU1184
	.loc 14 81 41 is_stmt 0 view .LVU1185
	movs	r5, #24
	muls	r4, r5
.LVL367:
	.loc 14 81 41 view .LVU1186
	adds	r4, r0, r4
	.loc 14 83 37 view .LVU1187
	str	r3, [r4, #16]
	.loc 14 84 32 view .LVU1188
	ldr	r3, [sp, #16]
.LVL368:
	.loc 14 82 33 view .LVU1189
	str	r2, [r4, #4]
	.loc 14 84 32 view .LVU1190
	str	r3, [r4, #20]
	.loc 14 85 42 view .LVU1191
	movs	r3, #200
	.loc 14 85 56 view .LVU1192
	ldr	r3, [r0, r3]
	.loc 14 81 41 view .LVU1193
	str	r1, [r4, #12]
	.loc 14 82 17 is_stmt 1 view .LVU1194
	.loc 14 83 17 view .LVU1195
	.loc 14 84 17 view .LVU1196
	.loc 14 85 17 view .LVU1197
	.loc 14 85 56 is_stmt 0 view .LVU1198
	adds	r3, r3, r1
	.loc 14 85 40 view .LVU1199
	str	r3, [r4, #8]
	.loc 14 86 17 is_stmt 1 view .LVU1200
	.loc 14 86 35 is_stmt 0 view .LVU1201
	movs	r3, #1
	strb	r3, [r4]
	.loc 14 88 17 is_stmt 1 view .LVU1202
	.loc 14 88 24 is_stmt 0 view .LVU1203
	b	.L263
.LBE1756:
	.cfi_endproc
.LFE1088:
	.size	_ZN12TimerManager11start_timerEm9TimerTypePFvPvES1_.isra.0, .-_ZN12TimerManager11start_timerEm9TimerTypePFvPvES1_.isra.0
	.section	.text._ZN15HeartRateSensor4initEv,"axG",%progbits,_ZN15HeartRateSensor4initEv,comdat
	.align	1
	.p2align 2,,3
	.weak	_ZN15HeartRateSensor4initEv
	.syntax unified
	.code	16
	.thumb_func
	.type	_ZN15HeartRateSensor4initEv, %function
_ZN15HeartRateSensor4initEv:
.LVL369:
.LFB640:
	.loc 6 57 10 is_stmt 1 view -0
	.cfi_startproc
	@ args = 0, pretend = 0, frame = 0
	@ frame_needed = 0, uses_anonymous_args = 0
	.loc 6 59 9 view .LVU1205
	.loc 6 59 17 is_stmt 0 view .LVU1206
	ldr	r3, [r0]
	ldr	r2, .L270
	ldr	r3, [r3, #20]
	.loc 6 57 10 view .LVU1207
	push	{r4, lr}
	.cfi_def_cfa_offset 8
	.cfi_offset 4, -8
	.cfi_offset 14, -4
	cmp	r3, r2
	bne	.L268
.LVL370:
.LBB1759:
.LBI1759:
	.loc 6 67 10 is_stmt 1 view .LVU1208
.LBB1760:
	.loc 6 68 9 view .LVU1209
	.loc 6 68 24 is_stmt 0 view .LVU1210
	movs	r3, #1
	strb	r3, [r0, #6]
.LVL371:
.L269:
	.loc 6 68 24 view .LVU1211
.LBE1760:
.LBE1759:
	.loc 6 60 9 is_stmt 1 view .LVU1212
	.loc 6 61 5 is_stmt 0 view .LVU1213
	movs	r0, #1
	@ sp needed
	pop	{r4, pc}
.LVL372:
.L268:
	.loc 6 59 17 view .LVU1214
	blx	r3
.LVL373:
	.loc 6 59 17 view .LVU1215
	b	.L269
.L271:
	.align	2
.L270:
	.word	_ZN15HeartRateSensor8power_upEv
	.cfi_endproc
.LFE640:
	.size	_ZN15HeartRateSensor4initEv, .-_ZN15HeartRateSensor4initEv
	.section	.text._ZN19AccelerometerSensor4initEv,"axG",%progbits,_ZN19AccelerometerSensor4initEv,comdat
	.align	1
	.p2align 2,,3
	.weak	_ZN19AccelerometerSensor4initEv
	.syntax unified
	.code	16
	.thumb_func
	.type	_ZN19AccelerometerSensor4initEv, %function
_ZN19AccelerometerSensor4initEv:
.LVL374:
.LFB650:
	.loc 6 133 10 is_stmt 1 view -0
	.cfi_startproc
	@ args = 0, pretend = 0, frame = 0
	@ frame_needed = 0, uses_anonymous_args = 0
	.loc 6 134 9 view .LVU1217
	.loc 6 134 17 is_stmt 0 view .LVU1218
	ldr	r3, [r0]
	ldr	r2, .L275
	ldr	r3, [r3, #20]
	.loc 6 133 10 view .LVU1219
	push	{r4, lr}
	.cfi_def_cfa_offset 8
	.cfi_offset 4, -8
	.cfi_offset 14, -4
	cmp	r3, r2
	bne	.L273
.LVL375:
.LBB1763:
.LBI1763:
	.loc 6 139 10 is_stmt 1 view .LVU1220
.LBB1764:
	.loc 6 139 32 view .LVU1221
	.loc 6 139 47 is_stmt 0 view .LVU1222
	movs	r3, #1
	strb	r3, [r0, #6]
.LVL376:
.L274:
	.loc 6 139 47 view .LVU1223
.LBE1764:
.LBE1763:
	.loc 6 135 9 is_stmt 1 view .LVU1224
	.loc 6 136 5 is_stmt 0 view .LVU1225
	movs	r0, #1
	@ sp needed
	pop	{r4, pc}
.LVL377:
.L273:
	.loc 6 134 17 view .LVU1226
	blx	r3
.LVL378:
	.loc 6 134 17 view .LVU1227
	b	.L274
.L276:
	.align	2
.L275:
	.word	_ZN19AccelerometerSensor8power_upEv
	.cfi_endproc
.LFE650:
	.size	_ZN19AccelerometerSensor4initEv, .-_ZN19AccelerometerSensor4initEv
	.section	.text._ZN17MiniProgramEngine18api_get_heart_rateEP9lua_State,"axG",%progbits,_ZN17MiniProgramEngine18api_get_heart_rateEP9lua_State,comdat
	.align	1
	.p2align 2,,3
	.weak	_ZN17MiniProgramEngine18api_get_heart_rateEP9lua_State
	.syntax unified
	.code	16
	.thumb_func
	.type	_ZN17MiniProgramEngine18api_get_heart_rateEP9lua_State, %function
_ZN17MiniProgramEngine18api_get_heart_rateEP9lua_State:
.LVL379:
.LFB690:
	.loc 13 58 16 is_stmt 1 view -0
	.cfi_startproc
	@ args = 0, pretend = 0, frame = 0
	@ frame_needed = 0, uses_anonymous_args = 0
	.loc 13 59 9 view .LVU1229
	.loc 13 60 9 view .LVU1230
	.loc 13 61 9 view .LVU1231
.LBB1768:
	.loc 13 62 13 view .LVU1232
	.loc 13 63 13 view .LVU1233
.LBB1769:
.LBI1769:
	.loc 6 75 10 view .LVU1234
.LBB1770:
	.loc 6 76 9 view .LVU1235
.LBE1770:
.LBE1769:
.LBE1768:
	.loc 13 58 16 is_stmt 0 view .LVU1236
	push	{r4, lr}
	.cfi_def_cfa_offset 8
	.cfi_offset 4, -8
	.cfi_offset 14, -4
.LBB1773:
.LBB1772:
.LBB1771:
	.loc 6 76 14 view .LVU1237
	ldr	r3, .L281
	.loc 6 76 9 view .LVU1238
	ldrb	r2, [r3, #6]
	cmp	r2, #0
	beq	.L280
	.loc 6 79 9 is_stmt 1 view .LVU1239
	.loc 6 80 9 view .LVU1240
.LVL380:
	.loc 6 81 9 view .LVU1241
	.loc 6 81 9 is_stmt 0 view .LVU1242
.LBE1771:
.LBE1772:
	.loc 13 64 17 is_stmt 1 view .LVU1243
	.loc 13 64 32 is_stmt 0 view .LVU1244
	ldr	r1, [r3, #8]
	bl	lua_pushinteger
.LVL381:
.L279:
	.loc 13 68 13 is_stmt 1 view .LVU1245
.LBE1773:
	.loc 13 72 5 is_stmt 0 view .LVU1246
	@ sp needed
	movs	r0, #1
	pop	{r4, pc}
.LVL382:
.L280:
.LBB1774:
	.loc 13 66 17 is_stmt 1 view .LVU1247
	.loc 13 66 32 is_stmt 0 view .LVU1248
	movs	r1, #0
	bl	lua_pushinteger
.LVL383:
	.loc 13 66 32 view .LVU1249
	b	.L279
.L282:
	.align	2
.L281:
	.word	.LANCHOR1
.LBE1774:
	.cfi_endproc
.LFE690:
	.size	_ZN17MiniProgramEngine18api_get_heart_rateEP9lua_State, .-_ZN17MiniProgramEngine18api_get_heart_rateEP9lua_State
	.text
	.align	1
	.p2align 2,,3
	.global	_Z16hr_data_providerPci
	.syntax unified
	.code	16
	.thumb_func
	.type	_Z16hr_data_providerPci, %function
_Z16hr_data_providerPci:
.LVL384:
.LFB681:
	.loc 7 24 51 is_stmt 1 view -0
	.cfi_startproc
	@ args = 0, pretend = 0, frame = 8
	@ frame_needed = 0, uses_anonymous_args = 0
	.loc 7 25 5 view .LVU1251
	.loc 7 26 5 view .LVU1252
.LBB1778:
	.loc 7 28 9 view .LVU1253
	.loc 7 29 9 view .LVU1254
.LBB1779:
.LBI1779:
	.loc 6 75 10 view .LVU1255
.LBB1780:
	.loc 6 76 9 view .LVU1256
.LBE1780:
.LBE1779:
.LBE1778:
	.loc 7 24 51 is_stmt 0 view .LVU1257
	push	{r4, r5, r6, r7, lr}
	.cfi_def_cfa_offset 20
	.cfi_offset 4, -20
	.cfi_offset 5, -16
	.cfi_offset 6, -12
	.cfi_offset 7, -8
	.cfi_offset 14, -4
	mov	lr, r8
	push	{lr}
	.cfi_def_cfa_offset 24
	.cfi_offset 8, -24
.LBB1787:
.LBB1784:
.LBB1781:
	.loc 6 76 14 view .LVU1258
	ldr	r3, .L298
.LBE1781:
.LBE1784:
.LBE1787:
	.loc 7 24 51 view .LVU1259
	mov	r8, r0
.LBB1788:
.LBB1785:
.LBB1782:
	.loc 6 76 9 view .LVU1260
	ldrb	r2, [r3, #6]
.LBE1782:
.LBE1785:
.LBE1788:
	.loc 7 24 51 view .LVU1261
	sub	sp, sp, #8
	.cfi_def_cfa_offset 32
.LBB1789:
.LBB1786:
.LBB1783:
	.loc 6 76 9 view .LVU1262
	cmp	r2, #0
	beq	.L284
	.loc 6 79 9 is_stmt 1 view .LVU1263
	.loc 6 80 9 view .LVU1264
	.loc 6 80 33 is_stmt 0 view .LVU1265
	ldr	r4, [r3, #8]
.LVL385:
	.loc 6 81 9 is_stmt 1 view .LVU1266
.L284:
	.loc 6 81 9 is_stmt 0 view .LVU1267
.LBE1783:
.LBE1786:
	.loc 7 32 9 is_stmt 1 view .LVU1268
	.loc 7 32 20 view .LVU1269
	.loc 7 33 9 view .LVU1270
	.loc 7 33 22 is_stmt 0 view .LVU1271
	mov	r2, r8
	movs	r3, #72
	strb	r3, [r2]
	.loc 7 33 29 is_stmt 1 view .LVU1272
.LVL386:
	.loc 7 33 42 is_stmt 0 view .LVU1273
	adds	r3, r3, #10
	strb	r3, [r2, #1]
	.loc 7 33 49 is_stmt 1 view .LVU1274
.LVL387:
	.loc 7 33 62 is_stmt 0 view .LVU1275
	subs	r3, r3, #24
	strb	r3, [r2, #2]
	.loc 7 34 9 is_stmt 1 view .LVU1276
	cmp	r4, #0
	bne	.L285
	.loc 7 34 21 discriminator 1 view .LVU1277
.LVL388:
	.loc 7 34 34 is_stmt 0 discriminator 1 view .LVU1278
	movs	r6, #4
	subs	r3, r3, #10
	strb	r3, [r2, #3]
	.loc 7 35 9 is_stmt 1 view .LVU1279
	.loc 7 35 22 view .LVU1280
.LVL389:
	.loc 7 36 9 view .LVU1281
	.loc 7 36 18 discriminator 1 view .LVU1282
.L289:
	.loc 7 38 9 view .LVU1283
	.loc 7 38 20 is_stmt 0 view .LVU1284
	movs	r3, #0
	mov	r2, r8
	strb	r3, [r2, r6]
.LBE1789:
	.loc 7 40 1 view .LVU1285
	add	sp, sp, #8
	@ sp needed
.LVL390:
	.loc 7 40 1 view .LVU1286
	pop	{r7}
	mov	r8, r7
	pop	{r4, r5, r6, r7, pc}
.LVL391:
.L285:
.LBB1790:
	.loc 7 35 9 is_stmt 1 view .LVU1287
	.loc 7 35 22 view .LVU1288
	.loc 7 36 9 view .LVU1289
	.loc 7 36 18 discriminator 1 view .LVU1290
	cmp	r4, #0
	ble	.L291
	.loc 7 35 26 is_stmt 0 view .LVU1291
	movs	r5, #0
.LVL392:
.L287:
	.loc 7 36 25 is_stmt 1 discriminator 2 view .LVU1292
	.loc 7 36 35 is_stmt 0 discriminator 2 view .LVU1293
	mov	r3, sp
	.loc 7 36 40 discriminator 2 view .LVU1294
	movs	r0, r4
	.loc 7 36 35 discriminator 2 view .LVU1295
	subs	r3, r3, #1
	movs	r6, r5
	.loc 7 36 40 discriminator 2 view .LVU1296
	movs	r1, #10
	.loc 7 36 31 discriminator 2 view .LVU1297
	adds	r5, r5, #1
.LVL393:
	.loc 7 36 35 discriminator 2 view .LVU1298
	adds	r7, r3, r5
	.loc 7 36 40 discriminator 2 view .LVU1299
	bl	__aeabi_idivmod
.LVL394:
	.loc 7 36 46 discriminator 2 view .LVU1300
	adds	r1, r1, #48
	.loc 7 36 35 discriminator 2 view .LVU1301
	strb	r1, [r7]
	.loc 7 36 53 is_stmt 1 discriminator 2 view .LVU1302
	.loc 7 36 55 is_stmt 0 discriminator 2 view .LVU1303
	movs	r0, r4
	movs	r1, #10
	bl	__aeabi_idiv
.LVL395:
	movs	r7, r4
	movs	r4, r0
.LVL396:
	.loc 7 36 18 is_stmt 1 discriminator 1 view .LVU1304
	cmp	r7, #9
	bgt	.L287
	movs	r2, r6
	mov	r3, r8
	add	r2, r2, sp
	add	r5, r5, r8
.LVL397:
.L290:
	.loc 7 37 24 discriminator 2 view .LVU1305
	.loc 7 37 37 is_stmt 0 discriminator 2 view .LVU1306
	ldrb	r1, [r2]
	.loc 7 37 19 discriminator 1 view .LVU1307
	adds	r3, r3, #1
.LVL398:
	.loc 7 37 37 discriminator 2 view .LVU1308
	strb	r1, [r3, #2]
	.loc 7 37 19 is_stmt 1 discriminator 1 view .LVU1309
	subs	r2, r2, #1
.LVL399:
	.loc 7 37 19 is_stmt 0 discriminator 1 view .LVU1310
	cmp	r3, r5
	bne	.L290
	.loc 7 38 17 view .LVU1311
	adds	r6, r6, #4
	b	.L289
.LVL400:
.L291:
	.loc 7 36 18 discriminator 1 view .LVU1312
	movs	r6, #3
.LVL401:
	.loc 7 37 19 is_stmt 1 discriminator 1 view .LVU1313
	b	.L289
.L299:
	.align	2
.L298:
	.word	.LANCHOR1
.LBE1790:
	.cfi_endproc
.LFE681:
	.size	_Z16hr_data_providerPci, .-_Z16hr_data_providerPci
	.section	.text._ZN16FlashBlockDeviceD0Ev,"axG",%progbits,_ZN16FlashBlockDeviceD5Ev,comdat
	.align	1
	.p2align 2,,3
	.weak	_ZN16FlashBlockDeviceD0Ev
	.syntax unified
	.code	16
	.thumb_func
	.type	_ZN16FlashBlockDeviceD0Ev, %function
_ZN16FlashBlockDeviceD0Ev:
.LVL402:
.LFB715:
	.loc 8 26 5 view -0
	.cfi_startproc
	@ args = 0, pretend = 0, frame = 0
	@ frame_needed = 0, uses_anonymous_args = 0
.LBB1798:
.LBI1798:
	.loc 8 26 5 view .LVU1315
.LBB1799:
	.loc 8 26 25 is_stmt 0 view .LVU1316
	ldr	r3, .L309
.LBE1799:
.LBE1798:
	.loc 8 26 5 view .LVU1317
	push	{r4, lr}
	.cfi_def_cfa_offset 8
	.cfi_offset 4, -8
	.cfi_offset 14, -4
	.loc 8 26 5 view .LVU1318
	movs	r4, r0
.LBB1805:
.LBB1804:
	.loc 8 26 25 view .LVU1319
	str	r3, [r0]
	.loc 8 27 9 is_stmt 1 view .LVU1320
	.loc 8 27 18 is_stmt 0 view .LVU1321
	ldr	r0, [r0, #16]
.LVL403:
	.loc 8 27 9 view .LVU1322
	cmp	r0, #0
	beq	.L301
	.loc 8 27 18 discriminator 1 view .LVU1323
	bl	_ZdaPv
.LVL404:
.L301:
.LBB1800:
.LBI1800:
	.loc 3 53 7 is_stmt 1 view .LVU1324
.LBB1801:
.LBI1801:
	.loc 3 26 13 view .LVU1325
.LBB1802:
	.loc 3 26 23 is_stmt 0 view .LVU1326
	ldr	r3, .L309+4
	.loc 3 27 13 view .LVU1327
	ldr	r0, [r4, #12]
	.loc 3 26 23 view .LVU1328
	str	r3, [r4]
	.loc 3 27 9 is_stmt 1 view .LVU1329
	cmp	r0, #0
	beq	.L302
	.loc 3 27 24 discriminator 1 view .LVU1330
	.loc 3 27 28 is_stmt 0 discriminator 1 view .LVU1331
	bl	free
.LVL405:
.L302:
.LBB1803:
.LBI1803:
	.loc 2 8 13 is_stmt 1 view .LVU1332
	.loc 2 8 13 is_stmt 0 view .LVU1333
.LBE1803:
.LBE1802:
.LBE1801:
.LBE1800:
.LBE1804:
.LBE1805:
	.loc 8 28 5 view .LVU1334
	@ sp needed
	.loc 8 28 5 discriminator 1 view .LVU1335
	movs	r0, r4
	movs	r1, #52
	bl	_ZdlPvj
.LVL406:
	.loc 8 28 5 view .LVU1336
	movs	r0, r4
.LVL407:
	.loc 8 28 5 view .LVU1337
	pop	{r4, pc}
.L310:
	.align	2
.L309:
	.word	_ZTV16FlashBlockDevice+8
	.word	_ZTV6Device+8
	.cfi_endproc
.LFE715:
	.size	_ZN16FlashBlockDeviceD0Ev, .-_ZN16FlashBlockDeviceD0Ev
	.section	.rodata._ZN10UartDevice4readEPciiPv.str1.4,"aMS",%progbits,1
	.align	2
.LC58:
	.ascii	"\010 \010\000"
	.section	.text._ZN10UartDevice4readEPciiPv,"axG",%progbits,_ZN10UartDevice4readEPciiPv,comdat
	.align	1
	.p2align 2,,3
	.weak	_ZN10UartDevice4readEPciiPv
	.syntax unified
	.code	16
	.thumb_func
	.type	_ZN10UartDevice4readEPciiPv, %function
_ZN10UartDevice4readEPciiPv:
.LVL408:
.LFB805:
	.loc 10 46 9 is_stmt 1 view -0
	.cfi_startproc
	@ args = 4, pretend = 0, frame = 8
	@ frame_needed = 0, uses_anonymous_args = 0
	.loc 10 47 9 view .LVU1339
	.loc 10 48 9 view .LVU1340
	.loc 10 51 9 view .LVU1341
	.loc 10 51 27 view .LVU1342
	.loc 10 46 9 is_stmt 0 view .LVU1343
	push	{r4, r5, r6, r7, lr}
	.cfi_def_cfa_offset 20
	.cfi_offset 4, -20
	.cfi_offset 5, -16
	.cfi_offset 6, -12
	.cfi_offset 7, -8
	.cfi_offset 14, -4
	mov	r7, r9
	mov	r6, r8
	mov	lr, r10
	push	{r6, r7, lr}
	.cfi_def_cfa_offset 32
	.cfi_offset 8, -32
	.cfi_offset 9, -28
	.cfi_offset 10, -24
	mov	r9, r1
	.loc 10 48 13 view .LVU1344
	movs	r6, #0
	.loc 10 46 9 view .LVU1345
	sub	sp, sp, #8
	.cfi_def_cfa_offset 40
	.loc 10 51 33 view .LVU1346
	subs	r7, r2, #1
	.loc 10 51 27 view .LVU1347
	cmp	r2, #1
	ble	.L311
.LBB1819:
.LBB1820:
.LBB1821:
	.file 22 "J:\\PROJECT\\auroraOS\\syscall/syscall.hpp"
	.loc 22 81 5 view .LVU1348
	movs	r3, #5
.LVL409:
	.loc 22 81 5 view .LVU1349
	mov	r8, r3
.LVL410:
.L322:
	.loc 22 81 5 view .LVU1350
.LBE1821:
.LBE1820:
	.loc 10 52 13 is_stmt 1 view .LVU1351
	.loc 10 53 13 view .LVU1352
	.loc 10 53 29 is_stmt 0 view .LVU1353
	mov	r3, sp
	adds	r0, r3, #7
	bl	uart_getc_nb
.LVL411:
	.loc 10 53 13 discriminator 1 view .LVU1354
	cmp	r0, #0
	beq	.L313
	.loc 10 54 17 is_stmt 1 view .LVU1355
	.loc 10 54 23 is_stmt 0 view .LVU1356
	mov	r3, sp
	ldrb	r0, [r3, #7]
	.loc 10 54 17 view .LVU1357
	cmp	r0, #13
	beq	.L315
	.loc 10 54 31 discriminator 1 view .LVU1358
	cmp	r0, #10
	beq	.L315
	.loc 10 58 24 is_stmt 1 view .LVU1359
	cmp	r0, #8
	beq	.L316
	.loc 10 58 38 is_stmt 0 discriminator 1 view .LVU1360
	cmp	r0, #127
	beq	.L316
	.loc 10 65 21 is_stmt 1 view .LVU1361
	.loc 10 65 39 is_stmt 0 view .LVU1362
	mov	r3, r9
	.loc 10 65 35 view .LVU1363
	adds	r4, r6, #1
.LVL412:
	.loc 10 65 39 view .LVU1364
	strb	r0, [r3, r6]
	.loc 10 66 21 is_stmt 1 view .LVU1365
.LVL413:
.LBB1823:
.LBI1823:
	.loc 10 34 9 view .LVU1366
	.loc 10 35 9 view .LVU1367
.LBB1824:
	.loc 10 35 27 discriminator 1 view .LVU1368
	.loc 10 37 13 view .LVU1369
	.loc 10 40 13 view .LVU1370
	.loc 10 40 22 is_stmt 0 view .LVU1371
	bl	uart_putc
.LVL414:
	.loc 10 35 9 is_stmt 1 discriminator 2 view .LVU1372
	.loc 10 35 27 discriminator 1 view .LVU1373
.LBE1824:
.LBE1823:
	.loc 10 65 35 is_stmt 0 view .LVU1374
	movs	r6, r4
.LVL415:
.L321:
	.loc 10 65 35 view .LVU1375
.LBE1819:
	.loc 10 51 27 is_stmt 1 view .LVU1376
	cmp	r6, r7
	blt	.L322
.LVL416:
.L311:
	.loc 10 74 5 is_stmt 0 view .LVU1377
	movs	r0, r6
	add	sp, sp, #8
	@ sp needed
.LVL417:
.LVL418:
	.loc 10 74 5 view .LVU1378
	pop	{r5, r6, r7}
	mov	r10, r7
	mov	r9, r6
	mov	r8, r5
	pop	{r4, r5, r6, r7, pc}
.LVL419:
.L313:
.LBB1832:
	.loc 10 70 17 is_stmt 1 view .LVU1379
.LBB1825:
.LBI1820:
	.loc 22 70 13 view .LVU1380
.LBB1822:
	.loc 22 81 5 view .LVU1381
	.syntax divided
@ 81 "J:\PROJECT\auroraOS\syscall/syscall.hpp" 1
	mov r0, r8
	svc #3
	
@ 0 "" 2
.LVL420:
	.loc 22 81 5 is_stmt 0 view .LVU1382
	.thumb
	.syntax unified
	b	.L321
.L316:
.LBE1822:
.LBE1825:
	.loc 10 59 21 is_stmt 1 view .LVU1383
	cmp	r6, #0
	ble	.L322
	.loc 10 60 25 view .LVU1384
	ldr	r4, .L332
	.loc 10 60 35 is_stmt 0 view .LVU1385
	subs	r6, r6, #1
.LVL421:
	.loc 10 62 25 is_stmt 1 view .LVU1386
.LBB1826:
.LBI1826:
	.loc 10 34 9 view .LVU1387
	.loc 10 35 9 view .LVU1388
.LBB1827:
	.loc 10 35 27 discriminator 1 view .LVU1389
	adds	r3, r4, #3
	mov	r10, r3
	b	.L320
.LVL422:
.L319:
	.loc 10 40 13 view .LVU1390
	.loc 10 40 22 is_stmt 0 view .LVU1391
	movs	r0, r5
	.loc 10 35 27 discriminator 1 view .LVU1392
	adds	r4, r4, #1
.LVL423:
	.loc 10 40 22 view .LVU1393
	bl	uart_putc
.LVL424:
	.loc 10 35 9 is_stmt 1 discriminator 2 view .LVU1394
	.loc 10 35 27 discriminator 1 view .LVU1395
	cmp	r10, r4
	beq	.L321
.L320:
.LVL425:
	.loc 10 37 13 view .LVU1396
	.loc 10 37 22 is_stmt 0 view .LVU1397
	ldrb	r5, [r4]
	.loc 10 37 13 view .LVU1398
	cmp	r5, #10
	bne	.L319
	.loc 10 38 17 is_stmt 1 view .LVU1399
	.loc 10 38 26 is_stmt 0 view .LVU1400
	movs	r0, #13
	bl	uart_putc
.LVL426:
	b	.L319
.LVL427:
.L315:
	.loc 10 38 26 view .LVU1401
.LBE1827:
.LBE1826:
	.loc 10 55 21 is_stmt 1 view .LVU1402
	.loc 10 55 37 is_stmt 0 view .LVU1403
	movs	r3, #0
	mov	r2, r9
.LBB1828:
.LBB1829:
	.loc 10 38 26 view .LVU1404
	movs	r0, #13
.LBE1829:
.LBE1828:
	.loc 10 55 37 view .LVU1405
	strb	r3, [r2, r6]
	.loc 10 56 21 is_stmt 1 view .LVU1406
.LVL428:
.LBB1831:
.LBI1828:
	.loc 10 34 9 view .LVU1407
	.loc 10 35 9 view .LVU1408
.LBB1830:
	.loc 10 35 27 discriminator 1 view .LVU1409
	.loc 10 37 13 view .LVU1410
	.loc 10 38 17 view .LVU1411
	.loc 10 38 26 is_stmt 0 view .LVU1412
	bl	uart_putc
.LVL429:
	.loc 10 40 13 is_stmt 1 view .LVU1413
	.loc 10 40 22 is_stmt 0 view .LVU1414
	movs	r0, #10
	bl	uart_putc
.LVL430:
	.loc 10 35 9 is_stmt 1 discriminator 2 view .LVU1415
	.loc 10 35 27 discriminator 1 view .LVU1416
.LBE1830:
	.loc 10 42 9 view .LVU1417
	.loc 10 42 9 is_stmt 0 view .LVU1418
.LBE1831:
	.loc 10 57 21 is_stmt 1 view .LVU1419
	b	.L311
.L333:
	.align	2
.L332:
	.word	.LC58
.LBE1832:
	.cfi_endproc
.LFE805:
	.size	_ZN10UartDevice4readEPciiPv, .-_ZN10UartDevice4readEPciiPv
	.section	.rodata._ZN11SoftbusNode4readEPciiPv.str1.4,"aMS",%progbits,1
	.align	2
.LC61:
	.ascii	"registers \000"
	.section	.text._ZN11SoftbusNode4readEPciiPv,"axG",%progbits,_ZN11SoftbusNode4readEPciiPv,comdat
	.align	1
	.p2align 2,,3
	.weak	_ZN11SoftbusNode4readEPciiPv
	.syntax unified
	.code	16
	.thumb_func
	.type	_ZN11SoftbusNode4readEPciiPv, %function
_ZN11SoftbusNode4readEPciiPv:
.LVL431:
.LFB822:
	.loc 11 192 9 view -0
	.cfi_startproc
	@ args = 4, pretend = 0, frame = 16
	@ frame_needed = 0, uses_anonymous_args = 0
	.loc 11 193 9 view .LVU1421
	.loc 11 192 9 is_stmt 0 view .LVU1422
	push	{r4, r5, r6, r7, lr}
	.cfi_def_cfa_offset 20
	.cfi_offset 4, -20
	.cfi_offset 5, -16
	.cfi_offset 6, -12
	.cfi_offset 7, -8
	.cfi_offset 14, -4
	mov	r7, r8
	mov	lr, r9
	push	{r7, lr}
	.cfi_def_cfa_offset 28
	.cfi_offset 8, -28
	.cfi_offset 9, -24
	mov	r8, r1
	.loc 11 193 32 discriminator 1 view .LVU1423
	movs	r4, #0
	.loc 11 192 9 view .LVU1424
	sub	sp, sp, #20
	.cfi_def_cfa_offset 48
	.loc 11 193 9 view .LVU1425
	cmp	r3, #0
	ble	.L353
.LVL432:
.L334:
	.loc 11 206 5 view .LVU1426
	movs	r0, r4
	add	sp, sp, #20
	@ sp needed
.LVL433:
	.loc 11 206 5 view .LVU1427
	pop	{r6, r7}
	mov	r9, r7
	mov	r8, r6
	pop	{r4, r5, r6, r7, pc}
.LVL434:
.L353:
.LBB1840:
.LBB1841:
	.loc 11 195 71 discriminator 2 view .LVU1428
	subs	r7, r2, #1
	ldr	r3, .L355
.LVL435:
	.loc 11 195 55 discriminator 1 view .LVU1429
	movs	r2, #114
.LVL436:
	.loc 11 195 87 discriminator 4 view .LVU1430
	subs	r1, r1, #1
.LVL437:
	.loc 11 195 87 discriminator 4 view .LVU1431
	b	.L336
.LVL438:
.L338:
	.loc 11 195 76 is_stmt 1 discriminator 4 view .LVU1432
	.loc 11 195 91 is_stmt 0 discriminator 4 view .LVU1433
	adds	r3, r3, #1
.LVL439:
	.loc 11 195 83 discriminator 4 view .LVU1434
	adds	r4, r4, #1
.LVL440:
	.loc 11 195 87 discriminator 4 view .LVU1435
	strb	r2, [r1, r4]
	.loc 11 195 58 is_stmt 1 discriminator 1 view .LVU1436
	.loc 11 195 55 is_stmt 0 discriminator 1 view .LVU1437
	ldrb	r2, [r3]
	.loc 11 195 58 discriminator 1 view .LVU1438
	cmp	r2, #0
	beq	.L337
.LVL441:
.L336:
	.loc 11 195 58 discriminator 2 view .LVU1439
	cmp	r4, r7
	blt	.L338
.L337:
.LVL442:
	.loc 11 195 58 discriminator 2 view .LVU1440
.LBE1841:
.LBE1840:
	.loc 11 202 35 is_stmt 1 discriminator 1 view .LVU1441
	.loc 11 202 45 is_stmt 0 discriminator 1 view .LVU1442
	bl	_ZN7Metrics21get_softbus_registersEv
.LVL443:
	.loc 11 202 45 discriminator 1 view .LVU1443
	subs	r5, r0, #0
.LVL444:
.LBB1842:
.LBI1842:
	.loc 11 196 27 is_stmt 1 view .LVU1444
.LBB1843:
.LBB1844:
	.loc 11 197 13 view .LVU1445
	.loc 11 197 28 view .LVU1446
	.loc 11 198 13 view .LVU1447
	beq	.L354
	.loc 11 197 32 is_stmt 0 view .LVU1448
	movs	r6, #0
.LVL445:
.L339:
	.loc 11 199 31 is_stmt 1 discriminator 2 view .LVU1449
	.loc 11 199 41 is_stmt 0 discriminator 2 view .LVU1450
	movs	r3, #1
	rsbs	r3, r3, #0
	add	r3, r3, sp
	mov	r9, r3
	.loc 11 199 48 discriminator 2 view .LVU1451
	movs	r0, r5
	.loc 11 199 48 discriminator 2 view .LVU1452
	movs	r1, #10
	.loc 11 199 37 discriminator 2 view .LVU1453
	adds	r6, r6, #1
.LVL446:
	.loc 11 199 48 discriminator 2 view .LVU1454
	bl	__aeabi_uidivmod
.LVL447:
	.loc 11 199 41 discriminator 2 view .LVU1455
	add	r9, r9, r6
	mov	r3, r9
	mov	r9, r5
	.loc 11 199 54 discriminator 2 view .LVU1456
	adds	r1, r1, #48
	.loc 11 199 41 discriminator 2 view .LVU1457
	strb	r1, [r3]
	.loc 11 199 61 is_stmt 1 discriminator 2 view .LVU1458
	.loc 11 199 65 is_stmt 0 discriminator 2 view .LVU1459
	movs	r0, r5
	movs	r1, #10
	bl	__aeabi_uidiv
.LVL448:
	.loc 11 199 24 discriminator 1 view .LVU1460
	mov	r3, r9
	.loc 11 199 65 discriminator 2 view .LVU1461
	movs	r5, r0
.LVL449:
	.loc 11 199 24 is_stmt 1 discriminator 1 view .LVU1462
	cmp	r3, #9
	bhi	.L339
	mov	r3, sp
.LVL450:
.L340:
	.loc 11 200 26 discriminator 1 view .LVU1463
	subs	r2, r6, #1
	adds	r3, r3, r2
	.loc 11 200 55 is_stmt 0 discriminator 3 view .LVU1464
	mov	r2, r8
	adds	r6, r4, r6
	subs	r1, r2, #1
	b	.L341
.L343:
	.loc 11 200 44 is_stmt 1 discriminator 3 view .LVU1465
	.loc 11 200 55 is_stmt 0 discriminator 3 view .LVU1466
	ldrb	r2, [r3]
	.loc 11 200 51 discriminator 3 view .LVU1467
	adds	r4, r4, #1
.LVL451:
	.loc 11 200 55 discriminator 3 view .LVU1468
	strb	r2, [r1, r4]
	.loc 11 200 26 is_stmt 1 discriminator 1 view .LVU1469
	subs	r3, r3, #1
	cmp	r6, r4
	beq	.L342
.LVL452:
.L341:
	.loc 11 200 26 is_stmt 0 discriminator 2 view .LVU1470
	cmp	r7, r4
	bgt	.L343
.LVL453:
.L345:
	.loc 11 200 26 discriminator 2 view .LVU1471
.LBE1844:
.LBE1843:
.LBE1842:
	.loc 11 204 9 is_stmt 1 view .LVU1472
	.loc 11 204 18 is_stmt 0 view .LVU1473
	movs	r3, #0
	mov	r2, r8
	strb	r3, [r2, r4]
	.loc 11 205 9 is_stmt 1 view .LVU1474
	.loc 11 205 16 is_stmt 0 view .LVU1475
	b	.L334
.LVL454:
.L354:
	.loc 11 205 16 view .LVU1476
	mov	r3, sp
	movs	r2, #48
.LBB1847:
.LBB1846:
.LBB1845:
	.loc 11 198 35 discriminator 1 view .LVU1477
	movs	r6, #1
	strb	r2, [r3]
.LVL455:
	.loc 11 199 24 is_stmt 1 discriminator 1 view .LVU1478
	b	.L340
.LVL456:
.L342:
	.loc 11 199 24 is_stmt 0 discriminator 1 view .LVU1479
.LBE1845:
.LBE1846:
.LBE1847:
	.loc 11 203 9 is_stmt 1 view .LVU1480
.LBB1848:
.LBI1848:
	.loc 11 195 27 view .LVU1481
.LBB1849:
	.loc 11 195 48 view .LVU1482
	.loc 11 195 58 discriminator 1 view .LVU1483
	.loc 11 195 85 is_stmt 0 discriminator 4 view .LVU1484
	mov	r3, r8
	adds	r2, r3, r4
	.loc 11 195 58 discriminator 2 view .LVU1485
	cmp	r4, r7
	bge	.L345
.LVL457:
	.loc 11 195 76 is_stmt 1 discriminator 4 view .LVU1486
	.loc 11 195 87 is_stmt 0 discriminator 4 view .LVU1487
	movs	r3, #10
.LVL458:
	.loc 11 195 87 discriminator 4 view .LVU1488
	strb	r3, [r2]
.LBE1849:
.LBE1848:
	.loc 11 204 18 view .LVU1489
	movs	r3, #0
	mov	r2, r8
.LBB1851:
.LBB1850:
	.loc 11 195 83 discriminator 4 view .LVU1490
	adds	r4, r4, #1
.LVL459:
	.loc 11 195 58 is_stmt 1 discriminator 1 view .LVU1491
	.loc 11 195 58 is_stmt 0 discriminator 1 view .LVU1492
.LBE1850:
.LBE1851:
	.loc 11 204 9 is_stmt 1 view .LVU1493
	.loc 11 204 18 is_stmt 0 view .LVU1494
	strb	r3, [r2, r4]
	.loc 11 205 9 is_stmt 1 view .LVU1495
	b	.L334
.L356:
	.align	2
.L355:
	.word	.LC61
	.cfi_endproc
.LFE822:
	.size	_ZN11SoftbusNode4readEPciiPv, .-_ZN11SoftbusNode4readEPciiPv
	.section	.rodata._ZN7NetNode4readEPciiPv.str1.4,"aMS",%progbits,1
	.align	2
.LC63:
	.ascii	"udp_drops \000"
	.section	.text._ZN7NetNode4readEPciiPv,"axG",%progbits,_ZN7NetNode4readEPciiPv,comdat
	.align	1
	.p2align 2,,3
	.weak	_ZN7NetNode4readEPciiPv
	.syntax unified
	.code	16
	.thumb_func
	.type	_ZN7NetNode4readEPciiPv, %function
_ZN7NetNode4readEPciiPv:
.LVL460:
.LFB819:
	.loc 11 170 9 view -0
	.cfi_startproc
	@ args = 4, pretend = 0, frame = 16
	@ frame_needed = 0, uses_anonymous_args = 0
	.loc 11 171 9 view .LVU1497
	.loc 11 170 9 is_stmt 0 view .LVU1498
	push	{r4, r5, r6, r7, lr}
	.cfi_def_cfa_offset 20
	.cfi_offset 4, -20
	.cfi_offset 5, -16
	.cfi_offset 6, -12
	.cfi_offset 7, -8
	.cfi_offset 14, -4
	mov	r7, r8
	mov	lr, r9
	push	{r7, lr}
	.cfi_def_cfa_offset 28
	.cfi_offset 8, -28
	.cfi_offset 9, -24
	mov	r8, r1
	.loc 11 171 32 discriminator 1 view .LVU1499
	movs	r4, #0
	.loc 11 170 9 view .LVU1500
	sub	sp, sp, #20
	.cfi_def_cfa_offset 48
	.loc 11 171 9 view .LVU1501
	cmp	r3, #0
	ble	.L376
.LVL461:
.L357:
	.loc 11 184 5 view .LVU1502
	movs	r0, r4
	add	sp, sp, #20
	@ sp needed
.LVL462:
	.loc 11 184 5 view .LVU1503
	pop	{r6, r7}
	mov	r9, r7
	mov	r8, r6
	pop	{r4, r5, r6, r7, pc}
.LVL463:
.L376:
.LBB1859:
.LBB1860:
	.loc 11 173 71 discriminator 2 view .LVU1504
	subs	r7, r2, #1
	ldr	r3, .L378
.LVL464:
	.loc 11 173 55 discriminator 1 view .LVU1505
	movs	r2, #117
.LVL465:
	.loc 11 173 87 discriminator 4 view .LVU1506
	subs	r1, r1, #1
.LVL466:
	.loc 11 173 87 discriminator 4 view .LVU1507
	b	.L359
.LVL467:
.L361:
	.loc 11 173 76 is_stmt 1 discriminator 4 view .LVU1508
	.loc 11 173 91 is_stmt 0 discriminator 4 view .LVU1509
	adds	r3, r3, #1
.LVL468:
	.loc 11 173 83 discriminator 4 view .LVU1510
	adds	r4, r4, #1
.LVL469:
	.loc 11 173 87 discriminator 4 view .LVU1511
	strb	r2, [r1, r4]
	.loc 11 173 58 is_stmt 1 discriminator 1 view .LVU1512
	.loc 11 173 55 is_stmt 0 discriminator 1 view .LVU1513
	ldrb	r2, [r3]
	.loc 11 173 58 discriminator 1 view .LVU1514
	cmp	r2, #0
	beq	.L360
.LVL470:
.L359:
	.loc 11 173 58 discriminator 2 view .LVU1515
	cmp	r4, r7
	blt	.L361
.L360:
.LVL471:
	.loc 11 173 58 discriminator 2 view .LVU1516
.LBE1860:
.LBE1859:
	.loc 11 180 35 is_stmt 1 discriminator 1 view .LVU1517
	.loc 11 180 45 is_stmt 0 discriminator 1 view .LVU1518
	bl	_ZN7Metrics13get_net_dropsEv
.LVL472:
	.loc 11 180 45 discriminator 1 view .LVU1519
	subs	r5, r0, #0
.LVL473:
.LBB1861:
.LBI1861:
	.loc 11 174 27 is_stmt 1 view .LVU1520
.LBB1862:
.LBB1863:
	.loc 11 175 13 view .LVU1521
	.loc 11 175 28 view .LVU1522
	.loc 11 176 13 view .LVU1523
	beq	.L377
	.loc 11 175 32 is_stmt 0 view .LVU1524
	movs	r6, #0
.LVL474:
.L362:
	.loc 11 177 31 is_stmt 1 discriminator 2 view .LVU1525
	.loc 11 177 41 is_stmt 0 discriminator 2 view .LVU1526
	movs	r3, #1
	rsbs	r3, r3, #0
	add	r3, r3, sp
	mov	r9, r3
	.loc 11 177 48 discriminator 2 view .LVU1527
	movs	r0, r5
	.loc 11 177 48 discriminator 2 view .LVU1528
	movs	r1, #10
	.loc 11 177 37 discriminator 2 view .LVU1529
	adds	r6, r6, #1
.LVL475:
	.loc 11 177 48 discriminator 2 view .LVU1530
	bl	__aeabi_uidivmod
.LVL476:
	.loc 11 177 41 discriminator 2 view .LVU1531
	add	r9, r9, r6
	mov	r3, r9
	mov	r9, r5
	.loc 11 177 54 discriminator 2 view .LVU1532
	adds	r1, r1, #48
	.loc 11 177 41 discriminator 2 view .LVU1533
	strb	r1, [r3]
	.loc 11 177 61 is_stmt 1 discriminator 2 view .LVU1534
	.loc 11 177 65 is_stmt 0 discriminator 2 view .LVU1535
	movs	r0, r5
	movs	r1, #10
	bl	__aeabi_uidiv
.LVL477:
	.loc 11 177 24 discriminator 1 view .LVU1536
	mov	r3, r9
	.loc 11 177 65 discriminator 2 view .LVU1537
	movs	r5, r0
.LVL478:
	.loc 11 177 24 is_stmt 1 discriminator 1 view .LVU1538
	cmp	r3, #9
	bhi	.L362
	mov	r3, sp
.LVL479:
.L363:
	.loc 11 178 26 discriminator 1 view .LVU1539
	subs	r2, r6, #1
	adds	r3, r3, r2
	.loc 11 178 55 is_stmt 0 discriminator 3 view .LVU1540
	mov	r2, r8
	adds	r6, r4, r6
	subs	r1, r2, #1
	b	.L364
.L366:
	.loc 11 178 44 is_stmt 1 discriminator 3 view .LVU1541
	.loc 11 178 55 is_stmt 0 discriminator 3 view .LVU1542
	ldrb	r2, [r3]
	.loc 11 178 51 discriminator 3 view .LVU1543
	adds	r4, r4, #1
.LVL480:
	.loc 11 178 55 discriminator 3 view .LVU1544
	strb	r2, [r1, r4]
	.loc 11 178 26 is_stmt 1 discriminator 1 view .LVU1545
	subs	r3, r3, #1
	cmp	r6, r4
	beq	.L365
.LVL481:
.L364:
	.loc 11 178 26 is_stmt 0 discriminator 2 view .LVU1546
	cmp	r7, r4
	bgt	.L366
.LVL482:
.L368:
	.loc 11 178 26 discriminator 2 view .LVU1547
.LBE1863:
.LBE1862:
.LBE1861:
	.loc 11 182 9 is_stmt 1 view .LVU1548
	.loc 11 182 18 is_stmt 0 view .LVU1549
	movs	r3, #0
	mov	r2, r8
	strb	r3, [r2, r4]
	.loc 11 183 9 is_stmt 1 view .LVU1550
	.loc 11 183 16 is_stmt 0 view .LVU1551
	b	.L357
.LVL483:
.L377:
	.loc 11 183 16 view .LVU1552
	mov	r3, sp
	movs	r2, #48
.LBB1866:
.LBB1865:
.LBB1864:
	.loc 11 176 35 discriminator 1 view .LVU1553
	movs	r6, #1
	strb	r2, [r3]
.LVL484:
	.loc 11 177 24 is_stmt 1 discriminator 1 view .LVU1554
	b	.L363
.LVL485:
.L365:
	.loc 11 177 24 is_stmt 0 discriminator 1 view .LVU1555
.LBE1864:
.LBE1865:
.LBE1866:
	.loc 11 181 9 is_stmt 1 view .LVU1556
.LBB1867:
.LBI1867:
	.loc 11 173 27 view .LVU1557
.LBB1868:
	.loc 11 173 48 view .LVU1558
	.loc 11 173 58 discriminator 1 view .LVU1559
	.loc 11 173 85 is_stmt 0 discriminator 4 view .LVU1560
	mov	r3, r8
	adds	r2, r3, r4
	.loc 11 173 58 discriminator 2 view .LVU1561
	cmp	r4, r7
	bge	.L368
.LVL486:
	.loc 11 173 76 is_stmt 1 discriminator 4 view .LVU1562
	.loc 11 173 87 is_stmt 0 discriminator 4 view .LVU1563
	movs	r3, #10
.LVL487:
	.loc 11 173 87 discriminator 4 view .LVU1564
	strb	r3, [r2]
.LBE1868:
.LBE1867:
	.loc 11 182 18 view .LVU1565
	movs	r3, #0
	mov	r2, r8
.LBB1870:
.LBB1869:
	.loc 11 173 83 discriminator 4 view .LVU1566
	adds	r4, r4, #1
.LVL488:
	.loc 11 173 58 is_stmt 1 discriminator 1 view .LVU1567
	.loc 11 173 58 is_stmt 0 discriminator 1 view .LVU1568
.LBE1869:
.LBE1870:
	.loc 11 182 9 is_stmt 1 view .LVU1569
	.loc 11 182 18 is_stmt 0 view .LVU1570
	strb	r3, [r2, r4]
	.loc 11 183 9 is_stmt 1 view .LVU1571
	b	.L357
.L379:
	.align	2
.L378:
	.word	.LC63
	.cfi_endproc
.LFE819:
	.size	_ZN7NetNode4readEPciiPv, .-_ZN7NetNode4readEPciiPv
	.section	.text._ZN17MiniProgramEngine13api_fill_rectEP9lua_State,"axG",%progbits,_ZN17MiniProgramEngine13api_fill_rectEP9lua_State,comdat
	.align	1
	.p2align 2,,3
	.weak	_ZN17MiniProgramEngine13api_fill_rectEP9lua_State
	.syntax unified
	.code	16
	.thumb_func
	.type	_ZN17MiniProgramEngine13api_fill_rectEP9lua_State, %function
_ZN17MiniProgramEngine13api_fill_rectEP9lua_State:
.LVL489:
.LFB691:
	.loc 13 77 16 view -0
	.cfi_startproc
	@ args = 0, pretend = 0, frame = 8
	@ frame_needed = 0, uses_anonymous_args = 0
	.loc 13 79 9 view .LVU1573
	.loc 13 77 16 is_stmt 0 view .LVU1574
	push	{r4, r5, r6, r7, lr}
	.cfi_def_cfa_offset 20
	.cfi_offset 4, -20
	.cfi_offset 5, -16
	.cfi_offset 6, -12
	.cfi_offset 7, -8
	.cfi_offset 14, -4
	mov	lr, fp
	mov	r6, r9
	mov	r5, r8
	mov	r7, r10
	push	{r5, r6, r7, lr}
	.cfi_def_cfa_offset 36
	.cfi_offset 8, -36
	.cfi_offset 9, -32
	.cfi_offset 10, -28
	.cfi_offset 11, -24
	.loc 13 79 34 view .LVU1575
	movs	r1, #1
	.loc 13 77 16 view .LVU1576
	sub	sp, sp, #12
	.cfi_def_cfa_offset 48
	.loc 13 77 16 view .LVU1577
	movs	r6, r0
	.loc 13 79 34 view .LVU1578
	bl	luaL_checkinteger
.LVL490:
	.loc 13 80 34 view .LVU1579
	movs	r1, #2
	.loc 13 79 34 view .LVU1580
	movs	r7, r0
.LVL491:
	.loc 13 80 9 is_stmt 1 view .LVU1581
	.loc 13 80 34 is_stmt 0 view .LVU1582
	movs	r0, r6
.LVL492:
	.loc 13 80 34 view .LVU1583
	bl	luaL_checkinteger
.LVL493:
	.loc 13 81 34 view .LVU1584
	movs	r1, #3
	.loc 13 80 34 view .LVU1585
	movs	r4, r0
.LVL494:
	.loc 13 81 9 is_stmt 1 view .LVU1586
	.loc 13 81 34 is_stmt 0 view .LVU1587
	movs	r0, r6
.LVL495:
	.loc 13 81 34 view .LVU1588
	bl	luaL_checkinteger
.LVL496:
	.loc 13 82 34 view .LVU1589
	movs	r1, #4
	.loc 13 81 34 view .LVU1590
	mov	r8, r0
.LVL497:
	.loc 13 82 9 is_stmt 1 view .LVU1591
	.loc 13 82 34 is_stmt 0 view .LVU1592
	movs	r0, r6
.LVL498:
	.loc 13 82 34 view .LVU1593
	bl	luaL_checkinteger
.LVL499:
	.loc 13 83 38 view .LVU1594
	movs	r1, #5
	.loc 13 82 34 view .LVU1595
	movs	r5, r0
.LVL500:
	.loc 13 83 9 is_stmt 1 view .LVU1596
	.loc 13 83 38 is_stmt 0 view .LVU1597
	movs	r0, r6
.LVL501:
	.loc 13 83 38 view .LVU1598
	bl	luaL_checkinteger
.LVL502:
	.loc 13 85 9 is_stmt 1 view .LVU1599
	.loc 13 85 23 is_stmt 0 view .LVU1600
	uxth	r3, r7
	uxth	r1, r4
.LVL503:
.LBB1877:
.LBI1877:
	.file 23 "J:/PROJECT/auroraOS/drivers/display/framebuffer.hpp"
	.loc 23 72 10 is_stmt 1 view .LVU1601
.LBE1877:
	.loc 13 85 23 is_stmt 0 view .LVU1602
	mov	r9, r3
.LBB1900:
.LBB1878:
	.loc 23 73 24 discriminator 2 view .LVU1603
	orrs	r3, r1
.LVL504:
	.loc 23 73 24 discriminator 2 view .LVU1604
	cmp	r3, #127
	bhi	.L382
	.loc 23 74 15 view .LVU1605
	mov	r3, r8
	lsls	r7, r7, #16
.LVL505:
	.loc 23 74 15 view .LVU1606
	lsls	r3, r3, #16
	lsrs	r7, r7, #16
	lsrs	r3, r3, #16
	adds	r3, r3, r7
	.loc 23 74 9 view .LVU1607
	cmp	r3, #128
	bgt	.L383
.LBE1878:
.LBE1900:
	.loc 13 85 23 view .LVU1608
	mov	r3, r8
	uxth	r2, r3
.LVL506:
.L384:
	.loc 13 85 23 view .LVU1609
	lsls	r3, r4, #16
.LBB1901:
.LBB1893:
	.loc 23 75 15 view .LVU1610
	lsls	r4, r5, #16
.LVL507:
	.loc 23 75 15 view .LVU1611
	lsrs	r4, r4, #16
	mov	ip, r4
	lsrs	r3, r3, #16
	add	ip, ip, r3
	.loc 23 75 9 view .LVU1612
	mov	r4, ip
	cmp	r4, #128
	bgt	.L385
.LBE1893:
.LBE1901:
	.loc 13 85 23 view .LVU1613
	uxth	r4, r5
	mov	r10, r4
.LVL508:
.LBB1902:
.LBB1894:
.LBB1879:
	.loc 23 77 36 is_stmt 1 discriminator 1 view .LVU1614
	cmp	ip, r3
	ble	.L387
	.loc 23 77 36 is_stmt 0 discriminator 1 view .LVU1615
.LBE1879:
.LBE1894:
.LBE1902:
	.loc 13 85 23 view .LVU1616
	uxth	r0, r0
.LVL509:
.LBB1903:
.LBB1895:
.LBB1884:
	.loc 23 77 23 view .LVU1617
	movs	r6, r1
.LVL510:
.LBB1880:
	.loc 23 78 40 is_stmt 1 discriminator 1 view .LVU1618
.LBE1880:
.LBE1884:
.LBE1895:
.LBE1903:
	.loc 13 85 23 is_stmt 0 view .LVU1619
	str	r0, [sp]
.LBB1904:
.LBB1896:
.LBB1885:
.LBB1881:
	.loc 23 78 44 discriminator 1 view .LVU1620
	adds	r5, r2, r7
.LVL511:
	.loc 23 78 40 discriminator 1 view .LVU1621
	cmp	r2, #0
	beq	.L408
.LVL512:
.L400:
	.loc 23 78 40 discriminator 1 view .LVU1622
	movs	r4, #1
	add	r4, r4, r9
	mov	r8, r4
.LVL513:
	.loc 23 78 40 discriminator 1 view .LVU1623
	ldr	r4, .L409
	mov	r0, r9
	mov	fp, r2
	movs	r2, r6
.LVL514:
	.loc 23 78 40 discriminator 1 view .LVU1624
	movs	r6, r4
	movs	r4, r3
	mov	r9, r1
.LVL515:
	.loc 23 78 40 discriminator 1 view .LVU1625
	mov	r1, ip
.LVL516:
	.loc 23 78 40 discriminator 1 view .LVU1626
	mov	ip, r7
	movs	r7, r5
	ldr	r5, [sp]
	str	r0, [sp, #4]
.LVL517:
.L390:
	.loc 23 78 40 discriminator 1 view .LVU1627
	mov	r3, r8
	uxth	r0, r3
	.loc 23 78 36 discriminator 1 view .LVU1628
	mov	r3, ip
	.loc 23 79 29 view .LVU1629
	lsls	r4, r4, #7
.L389:
.LVL518:
	.loc 23 79 44 view .LVU1630
	adds	r3, r4, r3
	lsls	r3, r3, #1
	strh	r5, [r6, r3]
	.loc 23 78 13 is_stmt 1 discriminator 3 view .LVU1631
.LVL519:
	.loc 23 78 40 discriminator 1 view .LVU1632
	.loc 23 78 36 is_stmt 0 discriminator 1 view .LVU1633
	movs	r3, r0
	.loc 23 78 40 discriminator 1 view .LVU1634
	adds	r0, r0, #1
.LVL520:
	.loc 23 78 40 discriminator 1 view .LVU1635
	cmp	r3, r7
	blt	.L389
.LBE1881:
	.loc 23 77 9 is_stmt 1 discriminator 2 view .LVU1636
	adds	r2, r2, #1
	uxth	r2, r2
.LVL521:
	.loc 23 77 36 discriminator 1 view .LVU1637
	.loc 23 77 32 is_stmt 0 discriminator 1 view .LVU1638
	movs	r4, r2
	.loc 23 77 36 discriminator 1 view .LVU1639
	cmp	r2, r1
	blt	.L390
	ldr	r3, [sp, #4]
.LVL522:
	.loc 23 77 36 discriminator 1 view .LVU1640
	mov	r1, r9
	mov	r2, fp
.LVL523:
	.loc 23 77 36 discriminator 1 view .LVU1641
	mov	r9, r3
.LVL524:
.L387:
	.loc 23 77 36 discriminator 1 view .LVU1642
.LBE1885:
.LBB1886:
.LBI1886:
	.loc 23 19 10 is_stmt 1 view .LVU1643
.LBB1887:
	.loc 23 20 9 view .LVU1644
	cmp	r2, #0
	beq	.L382
	.loc 23 20 20 is_stmt 0 discriminator 2 view .LVU1645
	mov	r3, r10
	cmp	r3, #0
	beq	.L382
	.loc 23 21 9 is_stmt 1 view .LVU1646
	.loc 23 21 18 is_stmt 0 view .LVU1647
	mov	r3, r9
	.loc 23 24 14 view .LVU1648
	ldr	r4, .L409
	ldr	r0, .L409+4
	.loc 23 21 18 view .LVU1649
	subs	r3, r3, #1
	adds	r2, r2, r3
.LVL525:
	.loc 23 24 9 view .LVU1650
	ldrb	r5, [r4, r0]
	.loc 23 22 18 view .LVU1651
	subs	r3, r1, #1
	add	r3, r3, r10
	.loc 23 21 18 view .LVU1652
	uxth	r2, r2
.LVL526:
	.loc 23 22 9 is_stmt 1 view .LVU1653
	.loc 23 22 18 is_stmt 0 view .LVU1654
	uxth	r3, r3
.LVL527:
	.loc 23 24 9 is_stmt 1 view .LVU1655
	cmp	r5, #0
	bne	.L394
	.loc 23 25 13 view .LVU1656
	.loc 23 25 21 view .LVU1657
	.loc 23 26 13 view .LVU1658
	.loc 23 26 25 view .LVU1659
	.loc 23 25 16 is_stmt 0 view .LVU1660
	mov	r6, r9
	lsls	r1, r1, #16
.LVL528:
	.loc 23 25 16 view .LVU1661
	movs	r5, #128
	orrs	r6, r1
	movs	r1, r6
	lsls	r5, r5, #8
	lsls	r3, r3, #16
.LVL529:
	.loc 23 25 16 view .LVU1662
	orrs	r3, r2
	adds	r5, r4, r5
	stmia	r5!, {r1, r3}
	.loc 23 27 13 is_stmt 1 view .LVU1663
	.loc 23 27 22 is_stmt 0 view .LVU1664
	movs	r3, #1
	strb	r3, [r4, r0]
.LVL530:
.L382:
	.loc 23 27 22 view .LVU1665
.LBE1887:
.LBE1886:
.LBE1896:
.LBE1904:
	.loc 13 86 9 is_stmt 1 view .LVU1666
	.loc 13 87 5 is_stmt 0 view .LVU1667
	movs	r0, #0
	add	sp, sp, #12
	@ sp needed
	pop	{r4, r5, r6, r7}
	mov	fp, r7
	mov	r10, r6
	mov	r9, r5
	mov	r8, r4
	pop	{r4, r5, r6, r7, pc}
.LVL531:
.L383:
.LBB1905:
.LBB1897:
	.loc 23 74 30 discriminator 1 view .LVU1668
	movs	r2, #128
	mov	r3, r9
	subs	r2, r2, r3
	uxth	r2, r2
.LVL532:
	.loc 23 74 30 discriminator 1 view .LVU1669
	b	.L384
.LVL533:
.L385:
	.loc 23 75 31 discriminator 1 view .LVU1670
	movs	r4, #128
	subs	r4, r4, r1
	uxth	r4, r4
	mov	r10, r4
.LVL534:
.LBB1889:
	.loc 23 77 40 discriminator 1 view .LVU1671
	mov	ip, r3
.LBE1889:
.LBE1897:
.LBE1905:
	.loc 13 85 23 view .LVU1672
	uxth	r0, r0
.LVL535:
.LBB1906:
.LBB1898:
.LBB1890:
	.loc 23 77 23 view .LVU1673
	movs	r6, r1
.LVL536:
	.loc 23 77 40 discriminator 1 view .LVU1674
	add	ip, ip, r10
.LVL537:
	.loc 23 77 36 is_stmt 1 discriminator 1 view .LVU1675
.LBB1882:
	.loc 23 78 40 discriminator 1 view .LVU1676
.LBE1882:
.LBE1890:
.LBE1898:
.LBE1906:
	.loc 13 85 23 is_stmt 0 view .LVU1677
	str	r0, [sp]
.LBB1907:
.LBB1899:
.LBB1891:
.LBB1883:
	.loc 23 78 44 discriminator 1 view .LVU1678
	adds	r5, r2, r7
.LVL538:
	.loc 23 78 40 discriminator 1 view .LVU1679
	cmp	r2, #0
	bne	.L400
.LVL539:
.L408:
	.loc 23 78 40 discriminator 1 view .LVU1680
	mov	r3, ip
.LVL540:
.L407:
	.loc 23 78 40 discriminator 1 view .LVU1681
.LBE1883:
	.loc 23 77 9 is_stmt 1 discriminator 2 view .LVU1682
	adds	r6, r6, #1
	uxth	r6, r6
.LVL541:
	.loc 23 77 36 discriminator 1 view .LVU1683
	cmp	r6, r3
	blt	.L407
	b	.L382
.LVL542:
.L394:
	.loc 23 77 36 is_stmt 0 discriminator 1 view .LVU1684
.LBE1891:
.LBB1892:
.LBB1888:
	.loc 23 29 13 is_stmt 1 view .LVU1685
	.loc 23 29 21 is_stmt 0 view .LVU1686
	movs	r0, #128
	lsls	r0, r0, #8
	.loc 23 29 13 view .LVU1687
	ldrh	r5, [r4, r0]
	cmp	r5, r9
	bls	.L395
	.loc 23 29 25 is_stmt 1 discriminator 1 view .LVU1688
	.loc 23 29 28 is_stmt 0 discriminator 1 view .LVU1689
	mov	r5, r9
	strh	r5, [r4, r0]
.L395:
	.loc 23 30 13 is_stmt 1 view .LVU1690
	.loc 23 30 21 is_stmt 0 view .LVU1691
	ldr	r0, .L409+8
	.loc 23 30 13 view .LVU1692
	ldrh	r5, [r4, r0]
	cmp	r5, r1
	bls	.L396
	.loc 23 30 25 is_stmt 1 discriminator 1 view .LVU1693
	.loc 23 30 28 is_stmt 0 discriminator 1 view .LVU1694
	strh	r1, [r4, r0]
.L396:
	.loc 23 31 13 is_stmt 1 view .LVU1695
	.loc 23 31 25 is_stmt 0 view .LVU1696
	ldr	r1, .L409+12
.LVL543:
	.loc 23 31 13 view .LVU1697
	ldrh	r0, [r4, r1]
	cmp	r0, r2
	bcs	.L397
	.loc 23 31 29 is_stmt 1 discriminator 1 view .LVU1698
	.loc 23 31 32 is_stmt 0 discriminator 1 view .LVU1699
	strh	r2, [r4, r1]
.L397:
	.loc 23 32 13 is_stmt 1 view .LVU1700
	.loc 23 32 26 is_stmt 0 view .LVU1701
	ldr	r2, .L409+16
.LVL544:
	.loc 23 32 13 view .LVU1702
	ldrh	r1, [r4, r2]
	cmp	r1, r3
	bcs	.L382
	.loc 23 32 30 is_stmt 1 discriminator 1 view .LVU1703
	.loc 23 32 33 is_stmt 0 discriminator 1 view .LVU1704
	strh	r3, [r4, r2]
	b	.L382
.L410:
	.align	2
.L409:
	.word	g_fb
	.word	32776
	.word	32770
	.word	32772
	.word	32774
.LBE1888:
.LBE1892:
.LBE1899:
.LBE1907:
	.cfi_endproc
.LFE691:
	.size	_ZN17MiniProgramEngine13api_fill_rectEP9lua_State, .-_ZN17MiniProgramEngine13api_fill_rectEP9lua_State
	.section	.rodata._ZN9PowerNode4readEPciiPv.str1.4,"aMS",%progbits,1
	.align	2
.LC67:
	.ascii	"sleep_ratio \000"
	.global	__aeabi_lmul
	.global	__aeabi_uldivmod
	.align	2
.LC69:
	.ascii	"% sleep_count \000"
	.align	2
.LC71:
	.ascii	"\012dirty_ratio \000"
	.align	2
.LC73:
	.ascii	"%\012\000"
	.section	.text._ZN9PowerNode4readEPciiPv,"axG",%progbits,_ZN9PowerNode4readEPciiPv,comdat
	.align	1
	.p2align 2,,3
	.weak	_ZN9PowerNode4readEPciiPv
	.syntax unified
	.code	16
	.thumb_func
	.type	_ZN9PowerNode4readEPciiPv, %function
_ZN9PowerNode4readEPciiPv:
.LVL545:
.LFB816:
	.loc 11 141 9 is_stmt 1 view -0
	.cfi_startproc
	@ args = 4, pretend = 0, frame = 16
	@ frame_needed = 0, uses_anonymous_args = 0
	.loc 11 142 9 view .LVU1706
	.loc 11 141 9 is_stmt 0 view .LVU1707
	push	{r4, r5, r6, r7, lr}
	.cfi_def_cfa_offset 20
	.cfi_offset 4, -20
	.cfi_offset 5, -16
	.cfi_offset 6, -12
	.cfi_offset 7, -8
	.cfi_offset 14, -4
	mov	r5, r8
	mov	lr, fp
	mov	r7, r10
	mov	r6, r9
	push	{r5, r6, r7, lr}
	.cfi_def_cfa_offset 36
	.cfi_offset 8, -36
	.cfi_offset 9, -32
	.cfi_offset 10, -28
	.cfi_offset 11, -24
	mov	r8, r1
	.loc 11 142 32 discriminator 1 view .LVU1708
	movs	r0, #0
.LVL546:
	.loc 11 141 9 view .LVU1709
	sub	sp, sp, #20
	.cfi_def_cfa_offset 56
	.loc 11 142 9 view .LVU1710
	cmp	r3, #0
	ble	.L471
.LVL547:
.L411:
	.loc 11 162 5 view .LVU1711
	add	sp, sp, #20
	@ sp needed
.LVL548:
	.loc 11 162 5 view .LVU1712
	pop	{r4, r5, r6, r7}
	mov	fp, r7
	mov	r10, r6
	mov	r9, r5
	mov	r8, r4
	pop	{r4, r5, r6, r7, pc}
.LVL549:
.L471:
.LBB1931:
.LBB1932:
	.loc 11 144 71 discriminator 2 view .LVU1713
	subs	r5, r2, #1
.LBE1932:
.LBE1931:
	.loc 11 143 13 view .LVU1714
	movs	r4, #0
.LBB1934:
.LBB1933:
	.loc 11 144 55 discriminator 1 view .LVU1715
	movs	r2, #115
.LVL550:
	.loc 11 144 71 discriminator 2 view .LVU1716
	ldr	r3, .L473
.LVL551:
	.loc 11 144 87 discriminator 4 view .LVU1717
	subs	r1, r1, #1
.LVL552:
	.loc 11 144 87 discriminator 4 view .LVU1718
	b	.L413
.LVL553:
.L415:
	.loc 11 144 76 is_stmt 1 discriminator 4 view .LVU1719
	.loc 11 144 91 is_stmt 0 discriminator 4 view .LVU1720
	adds	r3, r3, #1
.LVL554:
	.loc 11 144 83 discriminator 4 view .LVU1721
	adds	r4, r4, #1
.LVL555:
	.loc 11 144 87 discriminator 4 view .LVU1722
	strb	r2, [r1, r4]
	.loc 11 144 58 is_stmt 1 discriminator 1 view .LVU1723
	.loc 11 144 55 is_stmt 0 discriminator 1 view .LVU1724
	ldrb	r2, [r3]
	.loc 11 144 58 discriminator 1 view .LVU1725
	cmp	r2, #0
	beq	.L414
.LVL556:
.L413:
	.loc 11 144 58 discriminator 2 view .LVU1726
	cmp	r4, r5
	blt	.L415
.L414:
.LVL557:
	.loc 11 144 58 discriminator 2 view .LVU1727
.LBE1933:
.LBE1934:
	.loc 11 152 37 is_stmt 1 discriminator 1 view .LVU1728
	.loc 11 152 75 is_stmt 0 discriminator 1 view .LVU1729
	bl	_ZN7Metrics18get_power_profilerEv
.LVL558:
	movs	r3, r0
.LVL559:
.LBB1935:
.LBI1935:
	.file 24 "J:/PROJECT/auroraOS/metrics/power_profiler.hpp"
	.loc 24 31 14 is_stmt 1 view .LVU1730
.LBB1936:
	.loc 24 32 9 view .LVU1731
	.loc 24 32 26 is_stmt 0 view .LVU1732
	ldr	r1, [r0, #4]
	ldr	r0, [r0]
.LVL560:
	.loc 24 32 18 view .LVU1733
	ldr	r6, [r3, #8]
	ldr	r7, [r3, #12]
	adds	r6, r6, r0
	adcs	r7, r7, r1
.LVL561:
	.loc 24 33 9 is_stmt 1 view .LVU1734
	movs	r3, r6
.LVL562:
	.loc 24 33 9 is_stmt 0 view .LVU1735
	orrs	r3, r7
	bne	.LCB5910
	b	.L416	@long jump
.LCB5910:
	.loc 24 34 9 is_stmt 1 view .LVU1736
	.loc 24 34 37 is_stmt 0 view .LVU1737
	movs	r2, #100
	movs	r3, #0
	bl	__aeabi_lmul
.LVL563:
	.loc 24 34 44 view .LVU1738
	movs	r2, r6
	movs	r3, r7
	bl	__aeabi_uldivmod
.LVL564:
	subs	r6, r0, #0
.LVL565:
	.loc 24 34 44 view .LVU1739
.LBE1936:
.LBE1935:
.LBB1937:
.LBI1937:
	.loc 11 145 27 is_stmt 1 view .LVU1740
.LBB1938:
.LBB1939:
	.loc 11 146 13 view .LVU1741
	.loc 11 146 28 view .LVU1742
	.loc 11 147 13 view .LVU1743
	bne	.LCB5935
	b	.L416	@long jump
.LCB5935:
	movs	r3, #0
	mov	r10, r3
	mov	r3, sp
	subs	r7, r3, #1
.LVL566:
.L418:
	.loc 11 148 31 discriminator 2 view .LVU1744
	.loc 11 148 37 is_stmt 0 discriminator 2 view .LVU1745
	movs	r3, #1
	mov	ip, r3
	.loc 11 148 41 discriminator 2 view .LVU1746
	mov	r9, r7
	.loc 11 148 37 discriminator 2 view .LVU1747
	add	r10, r10, ip
.LVL567:
	.loc 11 148 48 discriminator 2 view .LVU1748
	movs	r0, r6
	.loc 11 148 48 discriminator 2 view .LVU1749
	movs	r1, #10
	bl	__aeabi_uidivmod
.LVL568:
	.loc 11 148 41 discriminator 2 view .LVU1750
	add	r9, r9, r10
	mov	r3, r9
	mov	r9, r6
	.loc 11 148 54 discriminator 2 view .LVU1751
	adds	r1, r1, #48
	.loc 11 148 41 discriminator 2 view .LVU1752
	strb	r1, [r3]
	.loc 11 148 61 is_stmt 1 discriminator 2 view .LVU1753
	.loc 11 148 65 is_stmt 0 discriminator 2 view .LVU1754
	movs	r0, r6
	movs	r1, #10
	bl	__aeabi_uidiv
.LVL569:
	.loc 11 148 24 discriminator 1 view .LVU1755
	mov	r3, r9
	.loc 11 148 65 discriminator 2 view .LVU1756
	movs	r6, r0
.LVL570:
	.loc 11 148 24 is_stmt 1 discriminator 1 view .LVU1757
	cmp	r3, #9
	bhi	.L418
	mov	r9, sp
.LVL571:
.L419:
	.loc 11 148 24 is_stmt 0 discriminator 1 view .LVU1758
	mov	r3, r10
	.loc 11 149 55 discriminator 3 view .LVU1759
	mov	r1, r8
	subs	r2, r3, #1
	add	r2, r2, r9
	adds	r3, r4, r3
	subs	r0, r1, #1
	b	.L420
.LVL572:
.L422:
	.loc 11 149 44 is_stmt 1 discriminator 3 view .LVU1760
	.loc 11 149 55 is_stmt 0 discriminator 3 view .LVU1761
	ldrb	r1, [r2]
	.loc 11 149 51 discriminator 3 view .LVU1762
	adds	r4, r4, #1
.LVL573:
	.loc 11 149 55 discriminator 3 view .LVU1763
	strb	r1, [r0, r4]
	.loc 11 149 26 is_stmt 1 discriminator 1 view .LVU1764
	subs	r2, r2, #1
	cmp	r4, r3
	beq	.L421
.LVL574:
.L420:
	.loc 11 149 26 is_stmt 0 discriminator 2 view .LVU1765
	cmp	r4, r5
	blt	.L422
.LVL575:
.L421:
	.loc 11 149 26 discriminator 2 view .LVU1766
.LBE1939:
.LBE1938:
.LBE1937:
	.loc 11 153 9 is_stmt 1 view .LVU1767
.LBB1942:
.LBI1942:
	.loc 11 144 27 view .LVU1768
.LBB1943:
	.loc 11 144 48 view .LVU1769
	.loc 11 144 58 discriminator 1 view .LVU1770
	.loc 11 144 87 is_stmt 0 discriminator 4 view .LVU1771
	mov	r2, r8
	subs	r1, r2, #1
	.loc 11 144 55 discriminator 1 view .LVU1772
	ldr	r2, .L473+4
	movs	r3, #37
	subs	r2, r2, r4
	b	.L423
.LVL576:
.L425:
	.loc 11 144 76 is_stmt 1 discriminator 4 view .LVU1773
	.loc 11 144 83 is_stmt 0 discriminator 4 view .LVU1774
	adds	r4, r4, #1
.LVL577:
	.loc 11 144 87 discriminator 4 view .LVU1775
	strb	r3, [r1, r4]
	.loc 11 144 58 is_stmt 1 discriminator 1 view .LVU1776
	.loc 11 144 55 is_stmt 0 discriminator 1 view .LVU1777
	ldrb	r3, [r2, r4]
	.loc 11 144 58 discriminator 1 view .LVU1778
	cmp	r3, #0
	beq	.L424
.LVL578:
.L423:
	.loc 11 144 58 discriminator 2 view .LVU1779
	cmp	r5, r4
	bgt	.L425
.LVL579:
.L424:
	.loc 11 144 58 discriminator 2 view .LVU1780
.LBE1943:
.LBE1942:
	.loc 11 153 39 is_stmt 1 discriminator 1 view .LVU1781
	.loc 11 153 77 is_stmt 0 discriminator 1 view .LVU1782
	bl	_ZN7Metrics18get_power_profilerEv
.LVL580:
.LBB1944:
.LBI1944:
	.loc 24 37 14 is_stmt 1 view .LVU1783
.LBB1945:
	.loc 24 37 40 view .LVU1784
	.loc 24 37 47 is_stmt 0 view .LVU1785
	ldr	r6, [r0, #16]
.LVL581:
	.loc 24 37 47 view .LVU1786
.LBE1945:
.LBE1944:
.LBB1946:
.LBI1946:
	.loc 11 145 27 is_stmt 1 view .LVU1787
.LBB1947:
.LBB1948:
	.loc 11 146 13 view .LVU1788
	.loc 11 146 28 view .LVU1789
	.loc 11 147 13 view .LVU1790
	cmp	r6, #0
	beq	.L472
	movs	r3, #0
	mov	r10, r3
	mov	r3, sp
	subs	r7, r3, #1
.LVL582:
.L426:
	.loc 11 148 31 discriminator 2 view .LVU1791
	.loc 11 148 37 is_stmt 0 discriminator 2 view .LVU1792
	movs	r3, #1
	mov	ip, r3
	.loc 11 148 41 discriminator 2 view .LVU1793
	mov	fp, r7
	.loc 11 148 37 discriminator 2 view .LVU1794
	add	r10, r10, ip
.LVL583:
	.loc 11 148 48 discriminator 2 view .LVU1795
	movs	r0, r6
	movs	r1, #10
	bl	__aeabi_uidivmod
.LVL584:
	.loc 11 148 41 discriminator 2 view .LVU1796
	add	fp, fp, r10
	mov	r3, fp
	mov	fp, r6
	.loc 11 148 54 discriminator 2 view .LVU1797
	adds	r1, r1, #48
	.loc 11 148 41 discriminator 2 view .LVU1798
	strb	r1, [r3]
	.loc 11 148 61 is_stmt 1 discriminator 2 view .LVU1799
	.loc 11 148 65 is_stmt 0 discriminator 2 view .LVU1800
	movs	r0, r6
	movs	r1, #10
	bl	__aeabi_uidiv
.LVL585:
	.loc 11 148 24 discriminator 1 view .LVU1801
	mov	r3, fp
	.loc 11 148 65 discriminator 2 view .LVU1802
	movs	r6, r0
.LVL586:
	.loc 11 148 24 is_stmt 1 discriminator 1 view .LVU1803
	cmp	r3, #9
	bhi	.L426
.LVL587:
.L427:
	.loc 11 148 24 is_stmt 0 discriminator 1 view .LVU1804
	mov	r3, r10
	.loc 11 149 55 discriminator 3 view .LVU1805
	mov	r1, r8
	subs	r2, r3, #1
	add	r2, r2, r9
	adds	r3, r4, r3
	subs	r0, r1, #1
	b	.L428
.LVL588:
.L430:
	.loc 11 149 44 is_stmt 1 discriminator 3 view .LVU1806
	.loc 11 149 55 is_stmt 0 discriminator 3 view .LVU1807
	ldrb	r1, [r2]
	.loc 11 149 51 discriminator 3 view .LVU1808
	adds	r4, r4, #1
.LVL589:
	.loc 11 149 55 discriminator 3 view .LVU1809
	strb	r1, [r0, r4]
	.loc 11 149 26 is_stmt 1 discriminator 1 view .LVU1810
	subs	r2, r2, #1
	cmp	r4, r3
	beq	.L429
.LVL590:
.L428:
	.loc 11 149 26 is_stmt 0 discriminator 2 view .LVU1811
	cmp	r5, r4
	bgt	.L430
.LVL591:
.L429:
	.loc 11 149 26 discriminator 2 view .LVU1812
.LBE1948:
.LBE1947:
.LBE1946:
	.loc 11 157 9 is_stmt 1 view .LVU1813
	.loc 11 157 53 is_stmt 0 view .LVU1814
	movs	r0, #3
	bl	_ZN7Metrics12get_recorderE8MetricId
.LVL592:
.LBB1951:
.LBI1951:
	.file 25 "J:/PROJECT/auroraOS/metrics/latency_recorder.hpp"
	.loc 25 47 14 is_stmt 1 view .LVU1815
.LBB1952:
	.loc 25 48 9 view .LVU1816
	.loc 25 48 13 is_stmt 0 view .LVU1817
	ldr	r6, [r0]
	.loc 25 48 9 view .LVU1818
	cmp	r6, #0
	beq	.L431
	.loc 25 49 9 is_stmt 1 view .LVU1819
	.loc 25 49 52 is_stmt 0 view .LVU1820
	ldr	r1, [r0, #12]
	ldr	r0, [r0, #8]
.LVL593:
	.loc 25 49 52 view .LVU1821
	movs	r2, r6
	movs	r3, #0
	bl	__aeabi_uldivmod
.LVL594:
	movs	r6, r0
.L431:
.LVL595:
	.loc 25 49 52 view .LVU1822
.LBE1952:
.LBE1951:
	.loc 11 158 9 is_stmt 1 view .LVU1823
.LBB1953:
.LBI1953:
	.loc 11 144 27 view .LVU1824
.LBB1954:
	.loc 11 144 48 view .LVU1825
	.loc 11 144 58 discriminator 1 view .LVU1826
	.loc 11 144 87 is_stmt 0 discriminator 4 view .LVU1827
	mov	r2, r8
	subs	r1, r2, #1
	.loc 11 144 55 discriminator 1 view .LVU1828
	ldr	r2, .L473+8
	movs	r3, #10
	subs	r2, r2, r4
	b	.L432
.LVL596:
.L434:
	.loc 11 144 76 is_stmt 1 discriminator 4 view .LVU1829
	.loc 11 144 83 is_stmt 0 discriminator 4 view .LVU1830
	adds	r4, r4, #1
.LVL597:
	.loc 11 144 87 discriminator 4 view .LVU1831
	strb	r3, [r1, r4]
	.loc 11 144 58 is_stmt 1 discriminator 1 view .LVU1832
	.loc 11 144 55 is_stmt 0 discriminator 1 view .LVU1833
	ldrb	r3, [r2, r4]
	.loc 11 144 58 discriminator 1 view .LVU1834
	cmp	r3, #0
	beq	.L433
.LVL598:
.L432:
	.loc 11 144 58 discriminator 2 view .LVU1835
	cmp	r4, r5
	blt	.L434
.LVL599:
.L433:
	.loc 11 144 58 discriminator 2 view .LVU1836
.LBE1954:
.LBE1953:
	.loc 11 158 39 is_stmt 1 discriminator 1 view .LVU1837
.LBB1955:
.LBI1955:
	.loc 11 145 27 view .LVU1838
.LBB1956:
.LBB1957:
	.loc 11 146 13 view .LVU1839
	.loc 11 146 28 view .LVU1840
	.loc 11 147 13 view .LVU1841
	cmp	r6, #0
	bne	.L448
.LVL600:
	.loc 11 147 13 is_stmt 0 view .LVU1842
	movs	r3, #48
	mov	r2, r9
	strb	r3, [r2]
.LVL601:
	.loc 11 148 24 is_stmt 1 discriminator 1 view .LVU1843
	.loc 11 149 26 discriminator 1 view .LVU1844
	.loc 11 147 35 is_stmt 0 discriminator 1 view .LVU1845
	subs	r3, r3, #47
	mov	r10, r3
.LVL602:
.L436:
	.loc 11 147 35 discriminator 1 view .LVU1846
	mov	r3, r10
	.loc 11 149 55 discriminator 3 view .LVU1847
	mov	r1, r8
	subs	r2, r3, #1
	add	r2, r2, r9
	adds	r3, r4, r3
	subs	r0, r1, #1
	b	.L437
.LVL603:
.L439:
	.loc 11 149 44 is_stmt 1 discriminator 3 view .LVU1848
	.loc 11 149 55 is_stmt 0 discriminator 3 view .LVU1849
	ldrb	r1, [r2]
	.loc 11 149 51 discriminator 3 view .LVU1850
	adds	r4, r4, #1
.LVL604:
	.loc 11 149 55 discriminator 3 view .LVU1851
	strb	r1, [r0, r4]
	.loc 11 149 26 is_stmt 1 discriminator 1 view .LVU1852
	subs	r2, r2, #1
	cmp	r3, r4
	beq	.L438
.LVL605:
.L437:
	.loc 11 149 26 is_stmt 0 discriminator 2 view .LVU1853
	cmp	r4, r5
	blt	.L439
.LVL606:
.L438:
	.loc 11 149 26 discriminator 2 view .LVU1854
.LBE1957:
.LBE1956:
.LBE1955:
	.loc 11 159 9 is_stmt 1 view .LVU1855
.LBB1962:
.LBI1962:
	.loc 11 144 27 view .LVU1856
.LBB1963:
	.loc 11 144 48 view .LVU1857
	.loc 11 144 58 discriminator 1 view .LVU1858
	.loc 11 144 87 is_stmt 0 discriminator 4 view .LVU1859
	mov	r2, r8
	subs	r1, r2, #1
	.loc 11 144 55 discriminator 1 view .LVU1860
	ldr	r2, .L473+12
.LBE1963:
.LBE1962:
.LBB1965:
.LBB1960:
.LBB1958:
	movs	r0, r4
.LBE1958:
.LBE1960:
.LBE1965:
.LBB1966:
.LBB1964:
	movs	r3, #37
	subs	r2, r2, r4
	b	.L440
.LVL607:
.L442:
	.loc 11 144 76 is_stmt 1 discriminator 4 view .LVU1861
	.loc 11 144 83 is_stmt 0 discriminator 4 view .LVU1862
	adds	r0, r0, #1
.LVL608:
	.loc 11 144 87 discriminator 4 view .LVU1863
	strb	r3, [r1, r0]
	.loc 11 144 58 is_stmt 1 discriminator 1 view .LVU1864
	.loc 11 144 55 is_stmt 0 discriminator 1 view .LVU1865
	ldrb	r3, [r2, r0]
	.loc 11 144 58 discriminator 1 view .LVU1866
	cmp	r3, #0
	beq	.L441
.LVL609:
.L440:
	.loc 11 144 58 discriminator 2 view .LVU1867
	cmp	r0, r5
	blt	.L442
.LVL610:
.L441:
	.loc 11 144 58 discriminator 2 view .LVU1868
.LBE1964:
.LBE1966:
	.loc 11 160 9 is_stmt 1 view .LVU1869
	.loc 11 160 18 is_stmt 0 view .LVU1870
	movs	r3, #0
	mov	r2, r8
	strb	r3, [r2, r0]
	.loc 11 161 9 is_stmt 1 view .LVU1871
	.loc 11 161 16 is_stmt 0 view .LVU1872
	b	.L411
.LVL611:
.L472:
	.loc 11 161 16 view .LVU1873
	movs	r3, #48
	mov	r2, r9
	strb	r3, [r2]
.LVL612:
.LBB1967:
.LBB1950:
.LBB1949:
	.loc 11 148 24 is_stmt 1 discriminator 1 view .LVU1874
	.loc 11 149 26 discriminator 1 view .LVU1875
	.loc 11 147 35 is_stmt 0 discriminator 1 view .LVU1876
	subs	r3, r3, #47
	mov	r10, r3
	b	.L427
.LVL613:
.L448:
	.loc 11 147 35 discriminator 1 view .LVU1877
.LBE1949:
.LBE1950:
.LBE1967:
.LBB1968:
.LBB1961:
.LBB1959:
	movs	r3, #0
	mov	r10, r3
	mov	r3, sp
	subs	r7, r3, #1
.LVL614:
.L435:
	.loc 11 148 31 is_stmt 1 discriminator 2 view .LVU1878
	.loc 11 148 37 is_stmt 0 discriminator 2 view .LVU1879
	movs	r3, #1
	mov	ip, r3
	.loc 11 148 41 discriminator 2 view .LVU1880
	mov	fp, r7
	.loc 11 148 37 discriminator 2 view .LVU1881
	add	r10, r10, ip
.LVL615:
	.loc 11 148 48 discriminator 2 view .LVU1882
	movs	r0, r6
	movs	r1, #10
	bl	__aeabi_uidivmod
.LVL616:
	.loc 11 148 41 discriminator 2 view .LVU1883
	add	fp, fp, r10
	mov	r3, fp
	mov	fp, r6
	.loc 11 148 54 discriminator 2 view .LVU1884
	adds	r1, r1, #48
	.loc 11 148 41 discriminator 2 view .LVU1885
	strb	r1, [r3]
	.loc 11 148 61 is_stmt 1 discriminator 2 view .LVU1886
	.loc 11 148 65 is_stmt 0 discriminator 2 view .LVU1887
	movs	r0, r6
	movs	r1, #10
	bl	__aeabi_uidiv
.LVL617:
	.loc 11 148 24 discriminator 1 view .LVU1888
	mov	r3, fp
	.loc 11 148 65 discriminator 2 view .LVU1889
	movs	r6, r0
.LVL618:
	.loc 11 148 24 is_stmt 1 discriminator 1 view .LVU1890
	cmp	r3, #9
	bhi	.L435
	b	.L436
.LVL619:
.L416:
	.loc 11 148 24 is_stmt 0 discriminator 1 view .LVU1891
.LBE1959:
.LBE1961:
.LBE1968:
.LBB1969:
.LBB1941:
.LBB1940:
	.loc 11 147 29 is_stmt 1 discriminator 1 view .LVU1892
	.loc 11 147 39 is_stmt 0 discriminator 1 view .LVU1893
	mov	r9, sp
	movs	r3, #48
	mov	r2, r9
	strb	r3, [r2]
.LVL620:
	.loc 11 148 24 is_stmt 1 discriminator 1 view .LVU1894
	.loc 11 149 26 discriminator 1 view .LVU1895
	.loc 11 147 35 is_stmt 0 discriminator 1 view .LVU1896
	subs	r3, r3, #47
	mov	r10, r3
	b	.L419
.L474:
	.align	2
.L473:
	.word	.LC67
	.word	.LC69
	.word	.LC71
	.word	.LC73
.LBE1940:
.LBE1941:
.LBE1969:
	.cfi_endproc
.LFE816:
	.size	_ZN9PowerNode4readEPciiPv, .-_ZN9PowerNode4readEPciiPv
	.section	.rodata._ZN11MemInfoNode4readEPciiPv.str1.4,"aMS",%progbits,1
	.align	2
.LC75:
	.ascii	"auroraOS Memory Info:\012\000"
	.align	2
.LC78:
	.ascii	"----------------------\012\000"
	.align	2
.LC80:
	.ascii	"MemTotal:  \000"
	.align	2
.LC82:
	.ascii	" Bytes\012\000"
	.align	2
.LC84:
	.ascii	"MemFree:   \000"
	.align	2
.LC86:
	.ascii	"Defrag:    \000"
	.align	2
.LC88:
	.ascii	" times\012\000"
	.section	.text._ZN11MemInfoNode4readEPciiPv,"axG",%progbits,_ZN11MemInfoNode4readEPciiPv,comdat
	.align	1
	.p2align 2,,3
	.weak	_ZN11MemInfoNode4readEPciiPv
	.syntax unified
	.code	16
	.thumb_func
	.type	_ZN11MemInfoNode4readEPciiPv, %function
_ZN11MemInfoNode4readEPciiPv:
.LVL621:
.LFB807:
	.loc 11 20 9 is_stmt 1 view -0
	.cfi_startproc
	@ args = 4, pretend = 0, frame = 24
	@ frame_needed = 0, uses_anonymous_args = 0
	.loc 11 22 9 view .LVU1898
	.loc 11 20 9 is_stmt 0 view .LVU1899
	push	{r4, r5, r6, r7, lr}
	.cfi_def_cfa_offset 20
	.cfi_offset 4, -20
	.cfi_offset 5, -16
	.cfi_offset 6, -12
	.cfi_offset 7, -8
	.cfi_offset 14, -4
	mov	lr, fp
	mov	r7, r10
	mov	r6, r9
	mov	r5, r8
	push	{r5, r6, r7, lr}
	.cfi_def_cfa_offset 36
	.cfi_offset 8, -36
	.cfi_offset 9, -32
	.cfi_offset 10, -28
	.cfi_offset 11, -24
	sub	sp, sp, #28
	.cfi_def_cfa_offset 64
	.loc 11 22 32 discriminator 1 view .LVU1900
	movs	r0, #0
.LVL622:
	.loc 11 20 9 view .LVU1901
	str	r1, [sp, #4]
	.loc 11 22 9 view .LVU1902
	cmp	r3, #0
	ble	.L533
.LVL623:
.L475:
	.loc 11 47 5 view .LVU1903
	add	sp, sp, #28
	@ sp needed
	pop	{r4, r5, r6, r7}
	mov	fp, r7
	mov	r10, r6
	mov	r9, r5
	mov	r8, r4
	pop	{r4, r5, r6, r7, pc}
.LVL624:
.L533:
	.loc 11 24 9 is_stmt 1 view .LVU1904
.LBB1999:
.LBI1999:
	.file 26 "J:\\PROJECT\\auroraOS\\kernel/memory.hpp"
	.loc 26 61 12 view .LVU1905
.LBB2000:
	.loc 26 61 38 view .LVU1906
	.loc 26 61 45 is_stmt 0 view .LVU1907
	ldr	r3, .L535
.LVL625:
	.loc 26 61 45 view .LVU1908
.LBE2000:
.LBE1999:
.LBB2003:
.LBB2004:
	.loc 11 30 36 discriminator 2 view .LVU1909
	subs	r5, r2, #1
.LBE2004:
.LBE2003:
.LBB2007:
.LBB2001:
	.loc 26 61 45 view .LVU1910
	ldr	r1, [r3, #4]
.LVL626:
	.loc 26 61 45 view .LVU1911
.LBE2001:
.LBE2007:
.LBB2008:
.LBB2009:
	.loc 26 60 46 view .LVU1912
	ldr	r7, [r3, #8]
.LBE2009:
.LBE2008:
.LBB2011:
.LBB2002:
	.loc 26 61 45 view .LVU1913
	mov	r8, r1
.LVL627:
	.loc 26 61 45 view .LVU1914
.LBE2002:
.LBE2011:
	.loc 11 25 9 is_stmt 1 view .LVU1915
.LBB2012:
.LBI2008:
	.loc 26 60 12 view .LVU1916
.LBB2010:
	.loc 26 60 39 view .LVU1917
	.loc 26 60 39 is_stmt 0 view .LVU1918
.LBE2010:
.LBE2012:
	.loc 11 27 9 is_stmt 1 view .LVU1919
	.loc 11 29 9 view .LVU1920
	.loc 11 32 9 view .LVU1921
	.loc 11 39 9 view .LVU1922
.LBB2013:
.LBI2003:
	.loc 11 29 27 view .LVU1923
.LBB2005:
	.loc 11 30 13 view .LVU1924
	.loc 11 30 23 discriminator 1 view .LVU1925
	.loc 11 30 52 is_stmt 0 discriminator 3 view .LVU1926
	ldr	r1, [sp, #4]
.LVL628:
	.loc 11 30 52 discriminator 3 view .LVU1927
.LBE2005:
.LBE2013:
	.loc 11 27 13 view .LVU1928
	movs	r4, #0
.LBB2014:
.LBB2006:
	.loc 11 30 20 discriminator 1 view .LVU1929
	movs	r2, #97
.LVL629:
	.loc 11 30 36 discriminator 2 view .LVU1930
	ldr	r3, .L535+4
	.loc 11 30 52 discriminator 3 view .LVU1931
	subs	r1, r1, #1
	b	.L477
.LVL630:
.L479:
	.loc 11 30 41 is_stmt 1 discriminator 3 view .LVU1932
	.loc 11 30 56 is_stmt 0 discriminator 3 view .LVU1933
	adds	r3, r3, #1
.LVL631:
	.loc 11 30 48 discriminator 3 view .LVU1934
	adds	r4, r4, #1
.LVL632:
	.loc 11 30 52 discriminator 3 view .LVU1935
	strb	r2, [r1, r4]
	.loc 11 30 23 is_stmt 1 discriminator 1 view .LVU1936
	.loc 11 30 20 is_stmt 0 discriminator 1 view .LVU1937
	ldrb	r2, [r3]
	.loc 11 30 23 discriminator 1 view .LVU1938
	cmp	r2, #0
	beq	.L480
.LVL633:
.L477:
	.loc 11 30 23 discriminator 2 view .LVU1939
	cmp	r4, r5
	blt	.L479
.L480:
.LVL634:
	.loc 11 30 23 discriminator 2 view .LVU1940
.LBE2006:
.LBE2014:
.LBB2015:
.LBB2016:
	.loc 11 30 23 is_stmt 1 discriminator 1 view .LVU1941
	.loc 11 30 52 is_stmt 0 discriminator 3 view .LVU1942
	ldr	r2, [sp, #4]
	.loc 11 30 20 discriminator 1 view .LVU1943
	ldr	r1, .L535+8
	movs	r3, #45
	.loc 11 30 52 discriminator 3 view .LVU1944
	subs	r2, r2, #1
	.loc 11 30 20 discriminator 1 view .LVU1945
	subs	r1, r1, r4
	b	.L478
.LVL635:
.L482:
	.loc 11 30 41 is_stmt 1 discriminator 3 view .LVU1946
	.loc 11 30 48 is_stmt 0 discriminator 3 view .LVU1947
	adds	r4, r4, #1
.LVL636:
	.loc 11 30 52 discriminator 3 view .LVU1948
	strb	r3, [r2, r4]
	.loc 11 30 23 is_stmt 1 discriminator 1 view .LVU1949
	.loc 11 30 20 is_stmt 0 discriminator 1 view .LVU1950
	ldrb	r3, [r1, r4]
	.loc 11 30 23 discriminator 1 view .LVU1951
	cmp	r3, #0
	bne	.LCB6692
	b	.L514	@long jump
.LCB6692:
.LVL637:
.L478:
	.loc 11 30 23 discriminator 2 view .LVU1952
	cmp	r4, r5
	blt	.L482
.LVL638:
.L483:
	.loc 11 30 23 discriminator 2 view .LVU1953
.LBE2016:
.LBE2015:
	.loc 11 41 36 is_stmt 1 discriminator 1 view .LVU1954
.LBB2017:
.LBI2017:
	.loc 11 32 27 view .LVU1955
.LBB2018:
.LBB2019:
	.loc 11 33 13 view .LVU1956
	.loc 11 33 28 view .LVU1957
	.loc 11 34 13 view .LVU1958
	cmp	r7, #0
	bne	.LCB6718
	b	.L534	@long jump
.LCB6718:
.L516:
	.loc 11 34 13 is_stmt 0 view .LVU1959
	movs	r3, #1
	add	r2, sp, #8
	mov	ip, r2
	rsbs	r3, r3, #0
	add	r3, r3, ip
	.loc 11 33 32 view .LVU1960
	movs	r6, #0
	mov	r9, r3
.LVL639:
.L485:
	.loc 11 35 31 is_stmt 1 discriminator 2 view .LVU1961
	.loc 11 35 37 is_stmt 0 discriminator 2 view .LVU1962
	adds	r6, r6, #1
.LVL640:
	.loc 11 35 41 discriminator 2 view .LVU1963
	mov	fp, r6
	.loc 11 35 48 discriminator 2 view .LVU1964
	movs	r0, r7
	movs	r1, #10
	bl	__aeabi_uidivmod
.LVL641:
	.loc 11 35 41 discriminator 2 view .LVU1965
	add	fp, fp, r9
	mov	r3, fp
	mov	fp, r7
	.loc 11 35 54 discriminator 2 view .LVU1966
	adds	r1, r1, #48
	.loc 11 35 41 discriminator 2 view .LVU1967
	strb	r1, [r3]
	.loc 11 35 61 is_stmt 1 discriminator 2 view .LVU1968
	.loc 11 35 65 is_stmt 0 discriminator 2 view .LVU1969
	movs	r0, r7
	movs	r1, #10
	bl	__aeabi_uidiv
.LVL642:
	.loc 11 35 24 discriminator 1 view .LVU1970
	mov	r3, fp
	.loc 11 35 65 discriminator 2 view .LVU1971
	movs	r7, r0
.LVL643:
	.loc 11 35 24 is_stmt 1 discriminator 1 view .LVU1972
	cmp	r3, #9
	bhi	.L485
	add	r3, sp, #8
	mov	r10, r3
.LVL644:
.L486:
	.loc 11 36 26 discriminator 1 view .LVU1973
	.loc 11 36 55 is_stmt 0 discriminator 3 view .LVU1974
	ldr	r1, [sp, #4]
	subs	r2, r6, #1
	add	r2, r2, r10
	adds	r3, r4, r6
	subs	r0, r1, #1
	b	.L487
.L489:
	.loc 11 36 44 is_stmt 1 discriminator 3 view .LVU1975
.LVL645:
	.loc 11 36 55 is_stmt 0 discriminator 3 view .LVU1976
	ldrb	r1, [r2]
	.loc 11 36 51 discriminator 3 view .LVU1977
	adds	r4, r4, #1
.LVL646:
	.loc 11 36 55 discriminator 3 view .LVU1978
	strb	r1, [r0, r4]
	.loc 11 36 26 is_stmt 1 discriminator 1 view .LVU1979
	subs	r2, r2, #1
	cmp	r4, r3
	beq	.L488
.LVL647:
.L487:
	.loc 11 36 26 is_stmt 0 discriminator 2 view .LVU1980
	cmp	r5, r4
	bgt	.L489
.LVL648:
.L488:
	.loc 11 36 26 discriminator 2 view .LVU1981
.LBE2019:
.LBE2018:
.LBE2017:
	.loc 11 41 59 is_stmt 1 discriminator 2 view .LVU1982
.LBB2024:
.LBI2024:
	.loc 11 29 27 view .LVU1983
.LBB2025:
	.loc 11 30 13 view .LVU1984
	.loc 11 30 23 discriminator 1 view .LVU1985
	.loc 11 30 52 is_stmt 0 discriminator 3 view .LVU1986
	ldr	r2, [sp, #4]
	.loc 11 30 20 discriminator 1 view .LVU1987
	ldr	r1, .L535+12
	movs	r3, #32
	.loc 11 30 52 discriminator 3 view .LVU1988
	subs	r2, r2, #1
	.loc 11 30 20 discriminator 1 view .LVU1989
	subs	r1, r1, r4
	b	.L490
.LVL649:
.L492:
	.loc 11 30 41 is_stmt 1 discriminator 3 view .LVU1990
	.loc 11 30 48 is_stmt 0 discriminator 3 view .LVU1991
	adds	r4, r4, #1
.LVL650:
	.loc 11 30 52 discriminator 3 view .LVU1992
	strb	r3, [r2, r4]
	.loc 11 30 23 is_stmt 1 discriminator 1 view .LVU1993
	.loc 11 30 20 is_stmt 0 discriminator 1 view .LVU1994
	ldrb	r3, [r1, r4]
	.loc 11 30 23 discriminator 1 view .LVU1995
	cmp	r3, #0
	bne	.LCB6841
	b	.L518	@long jump
.LCB6841:
.LVL651:
.L490:
	.loc 11 30 23 discriminator 2 view .LVU1996
	cmp	r5, r4
	bgt	.L492
.LVL652:
.L493:
	.loc 11 30 23 discriminator 2 view .LVU1997
.LBE2025:
.LBE2024:
	.loc 11 42 36 is_stmt 1 discriminator 1 view .LVU1998
.LBB2026:
.LBI2026:
	.loc 11 32 27 view .LVU1999
.LBB2027:
.LBB2028:
	.loc 11 33 13 view .LVU2000
	.loc 11 33 28 view .LVU2001
	.loc 11 34 13 view .LVU2002
	mov	r3, r8
	cmp	r3, #0
	bne	.L520
.LVL653:
	.loc 11 34 13 is_stmt 0 view .LVU2003
	mov	r2, r10
	.loc 11 34 35 discriminator 1 view .LVU2004
	movs	r6, #1
	adds	r3, r3, #48
.LVL654:
	.loc 11 34 35 discriminator 1 view .LVU2005
	strb	r3, [r2]
.LVL655:
	.loc 11 35 24 is_stmt 1 discriminator 1 view .LVU2006
	.loc 11 36 26 discriminator 1 view .LVU2007
.L496:
	.loc 11 36 55 is_stmt 0 discriminator 3 view .LVU2008
	ldr	r1, [sp, #4]
	subs	r2, r6, #1
	add	r2, r2, r10
	adds	r3, r4, r6
	subs	r0, r1, #1
	b	.L497
.LVL656:
.L499:
	.loc 11 36 44 is_stmt 1 discriminator 3 view .LVU2009
	.loc 11 36 55 is_stmt 0 discriminator 3 view .LVU2010
	ldrb	r1, [r2]
	.loc 11 36 51 discriminator 3 view .LVU2011
	adds	r4, r4, #1
.LVL657:
	.loc 11 36 55 discriminator 3 view .LVU2012
	strb	r1, [r0, r4]
	.loc 11 36 26 is_stmt 1 discriminator 1 view .LVU2013
	subs	r2, r2, #1
	cmp	r4, r3
	beq	.L498
.LVL658:
.L497:
	.loc 11 36 26 is_stmt 0 discriminator 2 view .LVU2014
	cmp	r4, r5
	blt	.L499
.LVL659:
.L498:
	.loc 11 36 26 discriminator 2 view .LVU2015
.LBE2028:
.LBE2027:
.LBE2026:
	.loc 11 42 58 is_stmt 1 discriminator 2 view .LVU2016
.LBB2031:
.LBI2031:
	.loc 11 29 27 view .LVU2017
.LBB2032:
	.loc 11 30 13 view .LVU2018
	.loc 11 30 23 discriminator 1 view .LVU2019
	.loc 11 30 52 is_stmt 0 discriminator 3 view .LVU2020
	ldr	r2, [sp, #4]
	.loc 11 30 20 discriminator 1 view .LVU2021
	ldr	r1, .L535+12
	movs	r3, #32
	.loc 11 30 52 discriminator 3 view .LVU2022
	subs	r2, r2, #1
	.loc 11 30 20 discriminator 1 view .LVU2023
	subs	r1, r1, r4
	b	.L500
.LVL660:
.L502:
	.loc 11 30 41 is_stmt 1 discriminator 3 view .LVU2024
	.loc 11 30 48 is_stmt 0 discriminator 3 view .LVU2025
	adds	r4, r4, #1
.LVL661:
	.loc 11 30 52 discriminator 3 view .LVU2026
	strb	r3, [r2, r4]
	.loc 11 30 23 is_stmt 1 discriminator 1 view .LVU2027
	.loc 11 30 20 is_stmt 0 discriminator 1 view .LVU2028
	ldrb	r3, [r1, r4]
	.loc 11 30 23 discriminator 1 view .LVU2029
	cmp	r3, #0
	beq	.L522
.LVL662:
.L500:
	.loc 11 30 23 discriminator 2 view .LVU2030
	cmp	r4, r5
	blt	.L502
.LVL663:
.L503:
	.loc 11 30 23 discriminator 2 view .LVU2031
.LBE2032:
.LBE2031:
	.loc 11 43 36 is_stmt 1 discriminator 1 view .LVU2032
	.loc 11 43 46 is_stmt 0 discriminator 1 view .LVU2033
	bl	_ZN7Metrics16get_heap_defragsEv
.LVL664:
	subs	r7, r0, #0
.LVL665:
.LBB2033:
.LBI2033:
	.loc 11 32 27 is_stmt 1 view .LVU2034
.LBB2034:
.LBB2035:
	.loc 11 33 13 view .LVU2035
	.loc 11 33 28 view .LVU2036
	.loc 11 34 13 view .LVU2037
	bne	.L524
.LVL666:
	.loc 11 34 13 is_stmt 0 view .LVU2038
	movs	r3, #48
	mov	r2, r10
	.loc 11 34 35 discriminator 1 view .LVU2039
	movs	r6, #1
	strb	r3, [r2]
.LVL667:
	.loc 11 35 24 is_stmt 1 discriminator 1 view .LVU2040
	.loc 11 36 26 discriminator 1 view .LVU2041
.L506:
	.loc 11 36 55 is_stmt 0 discriminator 3 view .LVU2042
	ldr	r2, [sp, #4]
	subs	r3, r6, #1
	add	r3, r3, r10
	movs	r7, r3
	subs	r1, r2, #1
	adds	r3, r4, r6
	b	.L507
.LVL668:
.L509:
	.loc 11 36 44 is_stmt 1 discriminator 3 view .LVU2043
	.loc 11 36 55 is_stmt 0 discriminator 3 view .LVU2044
	ldrb	r2, [r7]
	.loc 11 36 51 discriminator 3 view .LVU2045
	adds	r4, r4, #1
.LVL669:
	.loc 11 36 55 discriminator 3 view .LVU2046
	strb	r2, [r1, r4]
	.loc 11 36 26 is_stmt 1 discriminator 1 view .LVU2047
	subs	r7, r7, #1
	cmp	r4, r3
	beq	.L508
.LVL670:
.L507:
	.loc 11 36 26 is_stmt 0 discriminator 2 view .LVU2048
	cmp	r4, r5
	blt	.L509
.LVL671:
.L508:
	.loc 11 36 26 discriminator 2 view .LVU2049
.LBE2035:
.LBE2034:
.LBE2033:
	.loc 11 43 77 is_stmt 1 discriminator 3 view .LVU2050
.LBB2040:
.LBI2040:
	.loc 11 29 27 view .LVU2051
.LBB2041:
	.loc 11 30 13 view .LVU2052
	.loc 11 30 23 discriminator 1 view .LVU2053
	.loc 11 30 52 is_stmt 0 discriminator 3 view .LVU2054
	ldr	r2, [sp, #4]
.LBE2041:
.LBE2040:
.LBB2043:
.LBB2038:
.LBB2036:
	movs	r0, r4
.LBE2036:
.LBE2038:
.LBE2043:
.LBB2044:
.LBB2042:
	subs	r1, r2, #1
	.loc 11 30 20 discriminator 1 view .LVU2055
	ldr	r2, .L535+16
	movs	r3, #32
	subs	r2, r2, r4
	b	.L510
.LVL672:
.L512:
	.loc 11 30 41 is_stmt 1 discriminator 3 view .LVU2056
	.loc 11 30 48 is_stmt 0 discriminator 3 view .LVU2057
	adds	r0, r0, #1
.LVL673:
	.loc 11 30 52 discriminator 3 view .LVU2058
	strb	r3, [r1, r0]
	.loc 11 30 23 is_stmt 1 discriminator 1 view .LVU2059
	.loc 11 30 20 is_stmt 0 discriminator 1 view .LVU2060
	ldrb	r3, [r2, r0]
	.loc 11 30 23 discriminator 1 view .LVU2061
	cmp	r3, #0
	beq	.L511
.LVL674:
.L510:
	.loc 11 30 23 discriminator 2 view .LVU2062
	cmp	r0, r5
	blt	.L512
.LVL675:
.L511:
	.loc 11 30 23 discriminator 2 view .LVU2063
.LBE2042:
.LBE2044:
	.loc 11 45 9 is_stmt 1 view .LVU2064
	.loc 11 45 18 is_stmt 0 view .LVU2065
	movs	r3, #0
	ldr	r2, [sp, #4]
	strb	r3, [r2, r0]
	.loc 11 46 9 is_stmt 1 view .LVU2066
	.loc 11 46 16 is_stmt 0 view .LVU2067
	b	.L475
.LVL676:
.L534:
	.loc 11 46 16 view .LVU2068
	add	r3, sp, #8
	mov	r10, r3
	movs	r3, #48
	mov	r2, r10
.LBB2045:
.LBB2022:
.LBB2020:
	.loc 11 34 35 discriminator 1 view .LVU2069
	movs	r6, #1
	strb	r3, [r2]
.LVL677:
	.loc 11 35 24 is_stmt 1 discriminator 1 view .LVU2070
	b	.L486
.LVL678:
.L524:
	.loc 11 35 24 is_stmt 0 discriminator 1 view .LVU2071
	movs	r3, #1
	add	r2, sp, #8
	mov	ip, r2
	rsbs	r3, r3, #0
	add	r3, r3, ip
.LBE2020:
.LBE2022:
.LBE2045:
.LBB2046:
.LBB2039:
.LBB2037:
	movs	r6, #0
	mov	r9, r3
.LVL679:
.L505:
	.loc 11 35 31 is_stmt 1 discriminator 2 view .LVU2072
	.loc 11 35 37 is_stmt 0 discriminator 2 view .LVU2073
	adds	r6, r6, #1
.LVL680:
	.loc 11 35 41 discriminator 2 view .LVU2074
	mov	fp, r6
	.loc 11 35 48 discriminator 2 view .LVU2075
	movs	r0, r7
	.loc 11 35 48 discriminator 2 view .LVU2076
	movs	r1, #10
	bl	__aeabi_uidivmod
.LVL681:
	.loc 11 35 41 discriminator 2 view .LVU2077
	add	fp, fp, r9
	mov	r3, fp
	mov	fp, r7
	.loc 11 35 54 discriminator 2 view .LVU2078
	adds	r1, r1, #48
	.loc 11 35 41 discriminator 2 view .LVU2079
	strb	r1, [r3]
	.loc 11 35 61 is_stmt 1 discriminator 2 view .LVU2080
	.loc 11 35 65 is_stmt 0 discriminator 2 view .LVU2081
	movs	r0, r7
	movs	r1, #10
	bl	__aeabi_uidiv
.LVL682:
	.loc 11 35 24 discriminator 1 view .LVU2082
	mov	r3, fp
	.loc 11 35 65 discriminator 2 view .LVU2083
	movs	r7, r0
.LVL683:
	.loc 11 35 24 is_stmt 1 discriminator 1 view .LVU2084
	cmp	r3, #9
	bhi	.L505
	b	.L506
.LVL684:
.L520:
	.loc 11 35 24 is_stmt 0 discriminator 1 view .LVU2085
	movs	r3, #1
.LVL685:
	.loc 11 35 24 discriminator 1 view .LVU2086
	add	r2, sp, #8
	mov	ip, r2
	rsbs	r3, r3, #0
	add	r3, r3, ip
.LBE2037:
.LBE2039:
.LBE2046:
.LBB2047:
.LBB2030:
.LBB2029:
	movs	r6, #0
	mov	r9, r3
.LVL686:
.L495:
	.loc 11 35 31 is_stmt 1 discriminator 2 view .LVU2087
	.loc 11 35 41 is_stmt 0 discriminator 2 view .LVU2088
	mov	r3, r9
	.loc 11 35 48 discriminator 2 view .LVU2089
	mov	r0, r8
	movs	r1, #10
	.loc 11 35 37 discriminator 2 view .LVU2090
	adds	r6, r6, #1
.LVL687:
	.loc 11 35 41 discriminator 2 view .LVU2091
	adds	r7, r3, r6
	.loc 11 35 48 discriminator 2 view .LVU2092
	bl	__aeabi_uidivmod
.LVL688:
	.loc 11 35 54 discriminator 2 view .LVU2093
	adds	r1, r1, #48
	.loc 11 35 41 discriminator 2 view .LVU2094
	strb	r1, [r7]
	.loc 11 35 61 is_stmt 1 discriminator 2 view .LVU2095
	mov	r7, r8
	.loc 11 35 65 is_stmt 0 discriminator 2 view .LVU2096
	movs	r1, #10
	movs	r0, r7
	bl	__aeabi_uidiv
.LVL689:
	mov	r8, r0
.LVL690:
	.loc 11 35 24 is_stmt 1 discriminator 1 view .LVU2097
	cmp	r7, #9
	bhi	.L495
	b	.L496
.LVL691:
.L522:
	.loc 11 35 24 is_stmt 0 discriminator 1 view .LVU2098
.LBE2029:
.LBE2030:
.LBE2047:
.LBB2048:
.LBB2049:
	.loc 11 30 20 discriminator 1 view .LVU2099
	movs	r3, #68
	ldr	r1, .L535+20
	subs	r1, r1, r4
.LVL692:
.L501:
	.loc 11 30 23 discriminator 2 view .LVU2100
	cmp	r5, r4
	ble	.L503
	.loc 11 30 41 is_stmt 1 discriminator 3 view .LVU2101
	.loc 11 30 48 is_stmt 0 discriminator 3 view .LVU2102
	adds	r4, r4, #1
.LVL693:
	.loc 11 30 52 discriminator 3 view .LVU2103
	strb	r3, [r2, r4]
	.loc 11 30 23 is_stmt 1 discriminator 1 view .LVU2104
	.loc 11 30 20 is_stmt 0 discriminator 1 view .LVU2105
	ldrb	r3, [r1, r4]
	.loc 11 30 23 discriminator 1 view .LVU2106
	cmp	r3, #0
	bne	.L501
	b	.L503
.LVL694:
.L514:
	.loc 11 30 23 discriminator 1 view .LVU2107
.LBE2049:
.LBE2048:
.LBB2050:
.LBB2051:
	.loc 11 30 20 discriminator 1 view .LVU2108
	movs	r3, #77
	ldr	r1, .L535+24
	subs	r1, r1, r4
.LVL695:
.L481:
	.loc 11 30 23 discriminator 2 view .LVU2109
	cmp	r5, r4
	bgt	.LCB7313
	b	.L483	@long jump
.LCB7313:
	.loc 11 30 41 is_stmt 1 discriminator 3 view .LVU2110
	.loc 11 30 48 is_stmt 0 discriminator 3 view .LVU2111
	adds	r4, r4, #1
.LVL696:
	.loc 11 30 52 discriminator 3 view .LVU2112
	strb	r3, [r2, r4]
	.loc 11 30 23 is_stmt 1 discriminator 1 view .LVU2113
	.loc 11 30 20 is_stmt 0 discriminator 1 view .LVU2114
	ldrb	r3, [r1, r4]
	.loc 11 30 23 discriminator 1 view .LVU2115
	cmp	r3, #0
	bne	.L481
.LVL697:
	.loc 11 30 23 discriminator 1 view .LVU2116
.LBE2051:
.LBE2050:
	.loc 11 41 36 is_stmt 1 discriminator 1 view .LVU2117
.LBB2052:
	.loc 11 32 27 view .LVU2118
.LBB2023:
.LBB2021:
	.loc 11 33 13 view .LVU2119
	.loc 11 33 28 view .LVU2120
	.loc 11 34 13 view .LVU2121
	cmp	r7, #0
	beq	.LCB7342
	b	.L516	@long jump
.LCB7342:
	b	.L534
.LVL698:
.L518:
	.loc 11 34 13 is_stmt 0 view .LVU2122
.LBE2021:
.LBE2023:
.LBE2052:
.LBB2053:
.LBB2054:
	.loc 11 30 20 discriminator 1 view .LVU2123
	movs	r3, #77
	ldr	r1, .L535+28
	subs	r1, r1, r4
.LVL699:
.L491:
	.loc 11 30 23 discriminator 2 view .LVU2124
	cmp	r4, r5
	blt	.LCB7371
	b	.L493	@long jump
.LCB7371:
	.loc 11 30 41 is_stmt 1 discriminator 3 view .LVU2125
	.loc 11 30 48 is_stmt 0 discriminator 3 view .LVU2126
	adds	r4, r4, #1
.LVL700:
	.loc 11 30 52 discriminator 3 view .LVU2127
	strb	r3, [r2, r4]
	.loc 11 30 23 is_stmt 1 discriminator 1 view .LVU2128
	.loc 11 30 20 is_stmt 0 discriminator 1 view .LVU2129
	ldrb	r3, [r1, r4]
	.loc 11 30 23 discriminator 1 view .LVU2130
	cmp	r3, #0
	bne	.L491
	b	.L493
.L536:
	.align	2
.L535:
	.word	_ZZN10KernelHeap8instanceEvE4heap
	.word	.LC75
	.word	.LC78
	.word	.LC82
	.word	.LC88
	.word	.LC86
	.word	.LC80
	.word	.LC84
.LBE2054:
.LBE2053:
	.cfi_endproc
.LFE807:
	.size	_ZN11MemInfoNode4readEPciiPv, .-_ZN11MemInfoNode4readEPciiPv
	.section	.text._ZN17MiniProgramEngine13lua_allocatorEPvS0_jj,"axG",%progbits,_ZN17MiniProgramEngine13lua_allocatorEPvS0_jj,comdat
	.align	1
	.p2align 2,,3
	.weak	_ZN17MiniProgramEngine13lua_allocatorEPvS0_jj
	.syntax unified
	.code	16
	.thumb_func
	.type	_ZN17MiniProgramEngine13lua_allocatorEPvS0_jj, %function
_ZN17MiniProgramEngine13lua_allocatorEPvS0_jj:
.LVL701:
.LFB689:
	.loc 13 29 18 is_stmt 1 view -0
	.cfi_startproc
	@ args = 0, pretend = 0, frame = 16
	@ frame_needed = 0, uses_anonymous_args = 0
	.loc 13 29 18 is_stmt 0 view .LVU2132
	push	{r4, r5, r6, r7, lr}
	.cfi_def_cfa_offset 20
	.cfi_offset 4, -20
	.cfi_offset 5, -16
	.cfi_offset 6, -12
	.cfi_offset 7, -8
	.cfi_offset 14, -4
	mov	r6, r9
	mov	r5, r8
	mov	lr, fp
	mov	r7, r10
	push	{r5, r6, r7, lr}
	.cfi_def_cfa_offset 36
	.cfi_offset 8, -36
	.cfi_offset 9, -32
	.cfi_offset 10, -28
	.cfi_offset 11, -24
	sub	sp, sp, #20
	.cfi_def_cfa_offset 56
	.loc 13 29 18 view .LVU2133
	movs	r6, r1
	.loc 13 30 9 is_stmt 1 view .LVU2134
	.loc 13 31 9 view .LVU2135
	.loc 13 29 18 is_stmt 0 view .LVU2136
	subs	r5, r3, #0
	str	r2, [sp, #4]
.LBB2160:
	.loc 13 31 9 view .LVU2137
	bne	.LCB7436
	b	.L633	@long jump
.LCB7436:
.LBE2160:
	.loc 13 37 13 is_stmt 1 view .LVU2138
.LBB2395:
.LBB2161:
.LBB2162:
.LBB2163:
.LBB2164:
.LBB2165:
	.loc 21 84 16 is_stmt 0 view .LVU2139
	ldr	r3, .L645
.LVL702:
	.loc 21 84 16 view .LVU2140
	mov	r10, r3
	ldr	r3, [r3]
.LBE2165:
.LBE2164:
.LBE2163:
.LBE2162:
	.loc 13 37 13 view .LVU2141
	cmp	r1, #0
	beq	.L634
.LBB2244:
	.loc 13 40 17 is_stmt 1 view .LVU2142
.LVL703:
.LBB2245:
.LBI2245:
	.loc 26 64 11 view .LVU2143
.LBB2246:
	.loc 26 65 9 view .LVU2144
.LBB2247:
.LBI2247:
	.loc 21 83 21 view .LVU2145
.LBB2248:
	.loc 21 84 9 view .LVU2146
	.loc 21 84 16 is_stmt 0 view .LVU2147
	str	r3, [sp, #8]
.LVL704:
	.loc 21 84 16 view .LVU2148
.LBE2248:
.LBE2247:
	.loc 26 66 9 is_stmt 1 view .LVU2149
.LBB2249:
.LBI2249:
	.loc 26 73 11 view .LVU2150
.LBB2250:
	.loc 26 74 9 view .LVU2151
.LBB2251:
.LBI2251:
	.loc 20 190 5 view .LVU2152
	.loc 20 190 18 view .LVU2153
.LBB2252:
.LBI2252:
	.loc 21 51 21 view .LVU2154
.LBB2253:
	.loc 21 52 9 view .LVU2155
	.loc 21 53 9 view .LVU2156
	.syntax divided
@ 53 "J:\PROJECT\auroraOS\arch\arm\cortex-m\cm0plus/arch_impl.hpp" 1
	mrs fp, primask 
	cpsid i         
	
@ 0 "" 2
.LVL705:
	.loc 21 60 9 view .LVU2157
	.loc 21 60 9 is_stmt 0 view .LVU2158
	.thumb
	.syntax unified
.LBE2253:
.LBE2252:
.LBE2251:
	.loc 26 76 9 is_stmt 1 view .LVU2159
	movs	r3, r5
.LVL706:
	.loc 26 76 9 is_stmt 0 view .LVU2160
	adds	r3, r3, #32
	bls	.LCB7500
	b	.L635	@long jump
.LCB7500:
	.loc 26 80 9 is_stmt 1 view .LVU2161
.LVL707:
	.loc 26 82 9 view .LVU2162
	.loc 26 82 14 is_stmt 0 view .LVU2163
	movs	r2, #7
.LVL708:
	.loc 26 82 22 view .LVU2164
	adds	r3, r5, #7
	.loc 26 82 14 view .LVU2165
	bics	r3, r2
	.loc 26 83 16 view .LVU2166
	movs	r7, r3
	.loc 26 82 14 view .LVU2167
	mov	r9, r3
.LVL709:
	.loc 26 83 9 is_stmt 1 view .LVU2168
.LBB2254:
.LBB2255:
	.loc 26 97 22 is_stmt 0 view .LVU2169
	ldr	r3, .L645+4
.LVL710:
	.loc 26 97 22 view .LVU2170
.LBE2255:
.LBE2254:
	.loc 26 83 16 view .LVU2171
	adds	r7, r7, #24
.LVL711:
	.loc 26 85 9 is_stmt 1 view .LVU2172
.LBB2271:
.LBI2254:
	.loc 26 96 11 view .LVU2173
.LBB2268:
	.loc 26 97 9 view .LVU2174
	.loc 26 97 22 is_stmt 0 view .LVU2175
	mov	r8, r3
	ldr	r3, [r3]
.LVL712:
	.loc 26 98 9 is_stmt 1 view .LVU2176
	.loc 26 98 24 view .LVU2177
	cmp	r3, #0
	beq	.L561
.L566:
.LBB2256:
	.loc 26 99 13 view .LVU2178
.LBB2257:
	ldrb	r2, [r3, #12]
	cmp	r2, #0
	beq	.L562
	.loc 26 99 46 is_stmt 0 discriminator 1 view .LVU2179
	ldr	r2, [r3, #4]
	.loc 26 99 34 discriminator 1 view .LVU2180
	cmp	r7, r2
	bhi	.LCB7549
	b	.L636	@long jump
.LCB7549:
.L562:
.LBE2257:
	.loc 26 127 13 is_stmt 1 view .LVU2181
	.loc 26 127 21 is_stmt 0 view .LVU2182
	ldr	r3, [r3, #16]
.LVL713:
	.loc 26 127 21 view .LVU2183
.LBE2256:
	.loc 26 98 24 is_stmt 1 view .LVU2184
	cmp	r3, #0
	bne	.L566
.LVL714:
.L561:
	.loc 26 98 24 is_stmt 0 view .LVU2185
.LBE2268:
.LBE2271:
	.loc 26 89 9 is_stmt 1 view .LVU2186
.LBB2272:
.LBI2272:
	.loc 26 132 10 view .LVU2187
.LBB2273:
	.loc 26 133 9 view .LVU2188
	.loc 26 133 33 is_stmt 0 view .LVU2189
	bl	_ZN7Metrics15inc_heap_defragEv
.LVL715:
	.loc 26 134 9 is_stmt 1 view .LVU2190
	.loc 26 134 22 is_stmt 0 view .LVU2191
	mov	r3, r8
	ldr	r4, [r3]
.LVL716:
	.loc 26 135 9 is_stmt 1 view .LVU2192
	.loc 26 135 35 view .LVU2193
	cmp	r4, #0
	bne	.LCB7584
	b	.L570	@long jump
.LCB7584:
	.loc 26 135 47 is_stmt 0 discriminator 1 view .LVU2194
	ldr	r3, [r4, #16]
	.loc 26 134 22 view .LVU2195
	movs	r2, r4
	.loc 26 135 35 discriminator 1 view .LVU2196
	cmp	r3, #0
	beq	.L579
	mov	r0, r8
	str	r4, [sp, #12]
	b	.L571
.LVL717:
.L638:
	.loc 26 136 34 discriminator 1 view .LVU2197
	ldrb	r1, [r3, #12]
	cmp	r1, #0
	beq	.L592
	.loc 26 137 31 view .LVU2198
	ldr	r4, [r2, #4]
	.loc 26 139 48 view .LVU2199
	ldr	r1, [r3, #16]
	.loc 26 137 17 is_stmt 1 view .LVU2200
	.loc 26 137 31 is_stmt 0 view .LVU2201
	mov	ip, r4
	ldr	r3, [r3, #4]
	.loc 26 139 31 view .LVU2202
	str	r1, [r2, #16]
	.loc 26 137 31 view .LVU2203
	add	r3, r3, ip
	str	r3, [r2, #4]
	.loc 26 138 17 is_stmt 1 view .LVU2204
	.loc 26 138 35 is_stmt 0 view .LVU2205
	ldr	r3, [r0, #4]
	adds	r3, r3, #24
	str	r3, [r0, #4]
	.loc 26 139 17 is_stmt 1 view .LVU2206
.LVL718:
.L574:
	.loc 26 135 35 view .LVU2207
	.loc 26 135 47 is_stmt 0 discriminator 1 view .LVU2208
	ldr	r3, [r2, #16]
	.loc 26 135 35 discriminator 1 view .LVU2209
	cmp	r3, #0
	beq	.L637
.L571:
	.loc 26 136 13 is_stmt 1 view .LVU2210
	ldrb	r1, [r2, #12]
	cmp	r1, #0
	bne	.L638
.L592:
	.loc 26 141 25 is_stmt 0 view .LVU2211
	movs	r2, r3
.LVL719:
	.loc 26 141 25 view .LVU2212
	b	.L574
.LVL720:
.L634:
	.loc 26 141 25 view .LVU2213
.LBE2273:
.LBE2272:
.LBE2250:
.LBE2249:
.LBE2246:
.LBE2245:
.LBE2244:
	.loc 13 38 17 is_stmt 1 view .LVU2214
.LBB2378:
.LBI2162:
	.loc 26 64 11 view .LVU2215
.LBB2237:
	.loc 26 65 9 view .LVU2216
.LBB2167:
.LBI2164:
	.loc 21 83 21 view .LVU2217
.LBB2166:
	.loc 21 84 9 view .LVU2218
	.loc 21 84 16 is_stmt 0 view .LVU2219
	mov	fp, r3
.LVL721:
	.loc 21 84 16 view .LVU2220
.LBE2166:
.LBE2167:
	.loc 26 66 9 is_stmt 1 view .LVU2221
.LBB2168:
.LBI2168:
	.loc 26 73 11 view .LVU2222
.LBB2169:
	.loc 26 74 9 view .LVU2223
.LBB2170:
.LBI2170:
	.loc 20 190 5 view .LVU2224
	.loc 20 190 18 view .LVU2225
.LBB2171:
.LBI2171:
	.loc 21 51 21 view .LVU2226
.LBB2172:
	.loc 21 52 9 view .LVU2227
	.loc 21 53 9 view .LVU2228
	.syntax divided
@ 53 "J:\PROJECT\auroraOS\arch\arm\cortex-m\cm0plus/arch_impl.hpp" 1
	mrs r9, primask 
	cpsid i         
	
@ 0 "" 2
.LVL722:
	.loc 21 60 9 view .LVU2229
	.loc 21 60 9 is_stmt 0 view .LVU2230
	.thumb
	.syntax unified
.LBE2172:
.LBE2171:
.LBE2170:
	.loc 26 76 9 is_stmt 1 view .LVU2231
	movs	r3, r5
.LVL723:
	.loc 26 76 9 is_stmt 0 view .LVU2232
	adds	r3, r3, #32
	bls	.LCB7701
	b	.L639	@long jump
.LCB7701:
	.loc 26 80 9 is_stmt 1 view .LVU2233
.LVL724:
	.loc 26 82 9 view .LVU2234
	.loc 26 82 14 is_stmt 0 view .LVU2235
	movs	r3, #7
	.loc 26 82 22 view .LVU2236
	adds	r7, r5, #7
	.loc 26 82 14 view .LVU2237
	bics	r7, r3
.LVL725:
	.loc 26 83 9 is_stmt 1 view .LVU2238
	.loc 26 83 16 is_stmt 0 view .LVU2239
	movs	r6, r7
.LBB2173:
.LBB2174:
	.loc 26 97 22 view .LVU2240
	ldr	r3, .L645+4
.LBE2174:
.LBE2173:
	.loc 26 83 16 view .LVU2241
	adds	r6, r6, #24
.LVL726:
	.loc 26 85 9 is_stmt 1 view .LVU2242
.LBB2191:
.LBI2173:
	.loc 26 96 11 view .LVU2243
.LBB2188:
	.loc 26 97 9 view .LVU2244
	.loc 26 97 22 is_stmt 0 view .LVU2245
	mov	r8, r3
	ldr	r3, [r3]
.LVL727:
	.loc 26 98 9 is_stmt 1 view .LVU2246
	.loc 26 98 24 view .LVU2247
	cmp	r3, #0
	beq	.L553
.LVL728:
.L545:
.LBB2175:
	.loc 26 99 13 view .LVU2248
.LBB2176:
	ldrb	r2, [r3, #12]
	cmp	r2, #0
	beq	.L549
	.loc 26 99 46 is_stmt 0 discriminator 1 view .LVU2249
	ldr	r2, [r3, #4]
	.loc 26 99 34 discriminator 1 view .LVU2250
	cmp	r6, r2
	bhi	.LCB7750
	b	.L640	@long jump
.LCB7750:
.L549:
.LBE2176:
	.loc 26 127 13 is_stmt 1 view .LVU2251
	.loc 26 127 21 is_stmt 0 view .LVU2252
	ldr	r3, [r3, #16]
.LVL729:
	.loc 26 127 21 view .LVU2253
.LBE2175:
	.loc 26 98 24 is_stmt 1 view .LVU2254
	cmp	r3, #0
	bne	.L545
.LVL730:
.L553:
	.loc 26 98 24 is_stmt 0 view .LVU2255
.LBE2188:
.LBE2191:
	.loc 26 89 9 is_stmt 1 view .LVU2256
.LBB2192:
.LBI2192:
	.loc 26 132 10 view .LVU2257
.LBB2193:
	.loc 26 133 9 view .LVU2258
	.loc 26 133 33 is_stmt 0 view .LVU2259
	bl	_ZN7Metrics15inc_heap_defragEv
.LVL731:
	.loc 26 134 9 is_stmt 1 view .LVU2260
	.loc 26 134 22 is_stmt 0 view .LVU2261
	mov	r3, r8
	ldr	r4, [r3]
.LVL732:
	.loc 26 135 9 is_stmt 1 view .LVU2262
	.loc 26 135 35 view .LVU2263
	cmp	r4, #0
	beq	.L546
	.loc 26 135 47 is_stmt 0 discriminator 1 view .LVU2264
	ldr	r3, [r4, #16]
	.loc 26 134 22 view .LVU2265
	movs	r2, r4
	.loc 26 135 35 discriminator 1 view .LVU2266
	cmp	r3, #0
	beq	.L558
	mov	r0, r8
	str	r4, [sp, #4]
.LVL733:
	.loc 26 135 35 discriminator 1 view .LVU2267
	b	.L547
.LVL734:
.L642:
	.loc 26 136 34 discriminator 1 view .LVU2268
	ldrb	r1, [r3, #12]
	cmp	r1, #0
	beq	.L589
	.loc 26 137 31 view .LVU2269
	ldr	r4, [r2, #4]
	.loc 26 139 48 view .LVU2270
	ldr	r1, [r3, #16]
	.loc 26 137 17 is_stmt 1 view .LVU2271
	.loc 26 137 31 is_stmt 0 view .LVU2272
	mov	ip, r4
	ldr	r3, [r3, #4]
	.loc 26 139 31 view .LVU2273
	str	r1, [r2, #16]
	.loc 26 137 31 view .LVU2274
	add	r3, r3, ip
	str	r3, [r2, #4]
	.loc 26 138 17 is_stmt 1 view .LVU2275
	.loc 26 138 35 is_stmt 0 view .LVU2276
	ldr	r3, [r0, #4]
	adds	r3, r3, #24
	str	r3, [r0, #4]
	.loc 26 139 17 is_stmt 1 view .LVU2277
.LVL735:
.L554:
	.loc 26 135 35 view .LVU2278
	.loc 26 135 47 is_stmt 0 discriminator 1 view .LVU2279
	ldr	r3, [r2, #16]
	.loc 26 135 35 discriminator 1 view .LVU2280
	cmp	r3, #0
	beq	.L641
.L547:
	.loc 26 136 13 is_stmt 1 view .LVU2281
	ldrb	r1, [r2, #12]
	cmp	r1, #0
	bne	.L642
.L589:
	.loc 26 141 25 is_stmt 0 view .LVU2282
	movs	r2, r3
.LVL736:
	.loc 26 141 25 view .LVU2283
	b	.L554
.LVL737:
.L637:
	.loc 26 141 25 view .LVU2284
	mov	r8, r0
	ldr	r4, [sp, #12]
.LVL738:
.L579:
	.loc 26 141 25 view .LVU2285
.LBE2193:
.LBE2192:
.LBE2169:
.LBE2168:
.LBE2237:
.LBE2378:
.LBB2379:
.LBB2340:
.LBB2332:
.LBB2315:
.LBB2308:
.LBB2274:
.LBB2275:
.LBB2276:
	.loc 26 99 13 is_stmt 1 view .LVU2286
.LBB2277:
	ldrb	r3, [r4, #12]
	cmp	r3, #0
	beq	.L575
	.loc 26 99 46 is_stmt 0 discriminator 1 view .LVU2287
	ldr	r3, [r4, #4]
	.loc 26 99 34 discriminator 1 view .LVU2288
	cmp	r7, r3
	bhi	.LCB7889
	b	.L643	@long jump
.LCB7889:
.L575:
.LBE2277:
	.loc 26 127 13 is_stmt 1 view .LVU2289
	.loc 26 127 21 is_stmt 0 view .LVU2290
	ldr	r4, [r4, #16]
.LVL739:
	.loc 26 127 21 view .LVU2291
.LBE2276:
	.loc 26 98 24 is_stmt 1 view .LVU2292
	cmp	r4, #0
	bne	.L579
.LVL740:
.L578:
	.loc 26 98 24 is_stmt 0 view .LVU2293
.LBE2275:
.LBE2274:
.LBB2291:
.LBI2291:
	.loc 20 191 5 is_stmt 1 view .LVU2294
	.loc 20 191 19 view .LVU2295
.LBB2292:
.LBI2292:
	.loc 21 63 17 view .LVU2296
.LBB2293:
	.loc 21 64 9 view .LVU2297
	.syntax divided
@ 64 "J:\PROJECT\auroraOS\arch\arm\cortex-m\cm0plus/arch_impl.hpp" 1
	msr primask, fp 
	
@ 0 "" 2
.LVL741:
	.loc 21 64 9 is_stmt 0 view .LVU2298
	.thumb
	.syntax unified
.LBE2293:
.LBE2292:
.LBE2291:
.LBE2308:
.LBE2315:
	.loc 26 67 9 is_stmt 1 view .LVU2299
.LBB2316:
.LBI2316:
	.loc 21 83 21 view .LVU2300
.LBB2317:
	.loc 21 84 9 view .LVU2301
	.loc 21 84 16 is_stmt 0 view .LVU2302
	mov	r3, r10
	ldr	r1, [r3]
.LVL742:
	.loc 21 84 16 view .LVU2303
.LBE2317:
.LBE2316:
	.loc 26 68 9 is_stmt 1 view .LVU2304
	cmp	r5, #64
	bhi	.L580
	.loc 26 68 25 discriminator 1 view .LVU2305
	.loc 26 67 43 is_stmt 0 discriminator 1 view .LVU2306
	ldr	r3, [sp, #8]
	.loc 26 68 40 discriminator 1 view .LVU2307
	movs	r0, #2
	.loc 26 67 43 discriminator 1 view .LVU2308
	subs	r1, r1, r3
.LVL743:
	.loc 26 68 40 discriminator 1 view .LVU2309
	bl	_ZN7Metrics6recordE8MetricIdm
.LVL744:
.L580:
	.loc 26 69 9 is_stmt 1 view .LVU2310
	.loc 26 69 9 is_stmt 0 view .LVU2311
.LBE2332:
.LBE2340:
	.loc 13 41 17 is_stmt 1 view .LVU2312
.LBB2341:
	cmp	r4, #0
	bne	.L568
.LVL745:
.L540:
.LBB2342:
.LBB2343:
	.loc 13 45 33 is_stmt 0 view .LVU2313
	movs	r4, #0
	b	.L537
.LVL746:
.L641:
	.loc 13 45 33 view .LVU2314
	mov	r8, r0
	ldr	r4, [sp, #4]
.LVL747:
.L558:
	.loc 13 45 33 view .LVU2315
.LBE2343:
.LBE2342:
.LBE2341:
.LBE2379:
.LBB2380:
.LBB2238:
.LBB2225:
.LBB2219:
.LBB2194:
.LBB2195:
.LBB2196:
	.loc 26 99 13 is_stmt 1 view .LVU2316
.LBB2197:
	ldrb	r3, [r4, #12]
	cmp	r3, #0
	beq	.L555
	.loc 26 99 46 is_stmt 0 discriminator 1 view .LVU2317
	ldr	r3, [r4, #4]
	.loc 26 99 34 discriminator 1 view .LVU2318
	cmp	r6, r3
	bhi	.LCB8009
	b	.L644	@long jump
.LCB8009:
.L555:
.LBE2197:
	.loc 26 127 13 is_stmt 1 view .LVU2319
	.loc 26 127 21 is_stmt 0 view .LVU2320
	ldr	r4, [r4, #16]
.LVL748:
	.loc 26 127 21 view .LVU2321
.LBE2196:
	.loc 26 98 24 is_stmt 1 view .LVU2322
	cmp	r4, #0
	bne	.L558
.LVL749:
.L546:
	.loc 26 129 16 is_stmt 0 view .LVU2323
	movs	r4, #0
.LVL750:
.L552:
	.loc 26 129 16 view .LVU2324
.LBE2195:
.LBE2194:
.LBB2209:
.LBI2209:
	.loc 20 191 5 is_stmt 1 view .LVU2325
	.loc 20 191 19 view .LVU2326
.LBB2210:
.LBI2210:
	.loc 21 63 17 view .LVU2327
.LBB2211:
	.loc 21 64 9 view .LVU2328
	.syntax divided
@ 64 "J:\PROJECT\auroraOS\arch\arm\cortex-m\cm0plus/arch_impl.hpp" 1
	msr primask, r9 
	
@ 0 "" 2
.LVL751:
	.loc 21 64 9 is_stmt 0 view .LVU2329
	.thumb
	.syntax unified
.LBE2211:
.LBE2210:
.LBE2209:
.LBE2219:
.LBE2225:
	.loc 26 67 9 is_stmt 1 view .LVU2330
.LBB2226:
.LBI2226:
	.loc 21 83 21 view .LVU2331
.LBB2227:
	.loc 21 84 9 view .LVU2332
	.loc 21 84 16 is_stmt 0 view .LVU2333
	mov	r3, r10
	ldr	r1, [r3]
.LVL752:
	.loc 21 84 16 view .LVU2334
.LBE2227:
.LBE2226:
	.loc 26 68 9 is_stmt 1 view .LVU2335
	cmp	r5, #64
	bhi	.L537
	.loc 26 68 25 discriminator 1 view .LVU2336
	.loc 26 67 43 is_stmt 0 discriminator 1 view .LVU2337
	mov	r3, fp
	.loc 26 68 40 discriminator 1 view .LVU2338
	movs	r0, #2
	.loc 26 67 43 discriminator 1 view .LVU2339
	subs	r1, r1, r3
.LVL753:
	.loc 26 68 40 discriminator 1 view .LVU2340
	bl	_ZN7Metrics6recordE8MetricIdm
.LVL754:
.L537:
	.loc 26 68 40 discriminator 1 view .LVU2341
.LBE2238:
.LBE2380:
.LBE2161:
.LBE2395:
	.loc 13 53 5 view .LVU2342
	movs	r0, r4
	add	sp, sp, #20
	@ sp needed
	pop	{r4, r5, r6, r7}
	mov	fp, r7
	mov	r10, r6
	mov	r9, r5
	mov	r8, r4
	pop	{r4, r5, r6, r7, pc}
.LVL755:
.L636:
.LBB2396:
.LBB2393:
.LBB2381:
.LBB2366:
.LBB2333:
.LBB2322:
.LBB2309:
.LBB2300:
.LBB2269:
.LBB2266:
.LBB2264:
.LBB2258:
	.loc 26 100 17 is_stmt 1 view .LVU2343
	.loc 26 102 17 view .LVU2344
.LBB2259:
	.loc 26 102 75 is_stmt 0 view .LVU2345
	mov	r0, r9
.LVL756:
	.loc 26 102 75 view .LVU2346
.LBE2259:
	.loc 26 120 21 view .LVU2347
	mov	r1, r8
.LVL757:
.LBB2261:
	.loc 26 102 75 view .LVU2348
	adds	r0, r0, #56
.LBE2261:
	.loc 26 120 21 view .LVU2349
	ldr	r1, [r1, #4]
.LBB2262:
	.loc 26 102 17 view .LVU2350
	cmp	r2, r0
	bcs	.LCB8144
	b	.L563	@long jump
.LCB8144:
.LBB2260:
	.loc 26 103 21 is_stmt 1 view .LVU2351
.LVL758:
	.loc 26 104 21 view .LVU2352
	.loc 26 105 62 is_stmt 0 view .LVU2353
	adds	r0, r7, r3
.LVL759:
	.loc 26 107 21 is_stmt 1 view .LVU2354
	.loc 26 108 54 is_stmt 0 view .LVU2355
	subs	r2, r2, r7
	.loc 26 108 38 view .LVU2356
	str	r2, [r0, #4]
	.loc 26 109 48 view .LVU2357
	movs	r2, #0
	str	r2, [r0, #8]
	.loc 26 110 41 view .LVU2358
	adds	r2, r2, #1
	strb	r2, [r0, #12]
	.loc 26 107 39 view .LVU2359
	ldr	r4, .L645+8
	.loc 26 111 49 view .LVU2360
	ldr	r2, [r3, #16]
	.loc 26 107 39 view .LVU2361
	str	r4, [r0]
	.loc 26 108 21 is_stmt 1 view .LVU2362
	.loc 26 109 21 view .LVU2363
	.loc 26 110 21 view .LVU2364
	.loc 26 111 21 view .LVU2365
	.loc 26 111 38 is_stmt 0 view .LVU2366
	str	r2, [r0, #16]
	.loc 26 113 21 is_stmt 1 view .LVU2367
	.loc 26 113 35 is_stmt 0 view .LVU2368
	str	r7, [r3, #4]
	.loc 26 114 21 is_stmt 1 view .LVU2369
	.loc 26 114 35 is_stmt 0 view .LVU2370
	str	r0, [r3, #16]
	.loc 26 114 35 view .LVU2371
.LBE2260:
.LBE2262:
	.loc 26 117 17 is_stmt 1 view .LVU2372
	.loc 26 118 17 view .LVU2373
	.loc 26 119 17 view .LVU2374
	.loc 26 120 21 view .LVU2375
	.loc 26 120 39 is_stmt 0 view .LVU2376
	subs	r2, r1, r7
.LVL760:
.L564:
	.loc 26 117 34 view .LVU2377
	movs	r1, #0
	.loc 26 125 85 view .LVU2378
	movs	r4, r3
	.loc 26 117 34 view .LVU2379
	strb	r1, [r3, #12]
	.loc 26 120 39 view .LVU2380
	mov	r1, r8
	.loc 26 118 41 view .LVU2381
	str	r5, [r3, #8]
	.loc 26 120 39 view .LVU2382
	str	r2, [r1, #4]
	.loc 26 125 17 is_stmt 1 view .LVU2383
	.loc 26 125 85 is_stmt 0 view .LVU2384
	adds	r4, r4, #24
.LVL761:
	.loc 26 125 85 view .LVU2385
.LBE2258:
.LBE2264:
.LBE2266:
.LBE2269:
.LBE2300:
	.loc 26 86 9 is_stmt 1 view .LVU2386
	adds	r3, r3, #24
	bne	.LCB8205
	b	.L561	@long jump
.LCB8205:
.LVL762:
.LBB2301:
	.loc 20 191 5 view .LVU2387
	.loc 20 191 19 view .LVU2388
.LBB2297:
	.loc 21 63 17 view .LVU2389
.LBB2294:
	.loc 21 64 9 view .LVU2390
	.syntax divided
@ 64 "J:\PROJECT\auroraOS\arch\arm\cortex-m\cm0plus/arch_impl.hpp" 1
	msr primask, fp 
	
@ 0 "" 2
.LVL763:
	.loc 21 64 9 is_stmt 0 view .LVU2391
	.thumb
	.syntax unified
.LBE2294:
.LBE2297:
.LBE2301:
.LBE2309:
.LBE2322:
	.loc 26 67 9 is_stmt 1 view .LVU2392
.LBB2323:
	.loc 21 83 21 view .LVU2393
.LBB2318:
	.loc 21 84 9 view .LVU2394
	.loc 21 84 16 is_stmt 0 view .LVU2395
	mov	r3, r10
	ldr	r1, [r3]
.LVL764:
	.loc 21 84 16 view .LVU2396
.LBE2318:
.LBE2323:
	.loc 26 68 9 is_stmt 1 view .LVU2397
	cmp	r5, #64
	bhi	.L568
	.loc 26 68 25 discriminator 1 view .LVU2398
	.loc 26 67 43 is_stmt 0 discriminator 1 view .LVU2399
	ldr	r3, [sp, #8]
	.loc 26 68 40 discriminator 1 view .LVU2400
	movs	r0, #2
	.loc 26 67 43 discriminator 1 view .LVU2401
	subs	r1, r1, r3
.LVL765:
	.loc 26 68 40 discriminator 1 view .LVU2402
	bl	_ZN7Metrics6recordE8MetricIdm
.LVL766:
	.loc 26 69 9 is_stmt 1 view .LVU2403
	.loc 26 69 9 is_stmt 0 view .LVU2404
.LBE2333:
.LBE2366:
	.loc 13 41 17 is_stmt 1 view .LVU2405
.L568:
.LBB2367:
.LBB2361:
	.loc 13 42 21 view .LVU2406
	.loc 13 42 56 is_stmt 0 view .LVU2407
	ldr	r3, [sp, #4]
	cmp	r5, r3
	bls	.L581
	movs	r5, r3
.LVL767:
.L581:
	.loc 13 43 21 is_stmt 1 view .LVU2408
	.loc 13 44 21 view .LVU2409
	.loc 13 45 21 view .LVU2410
.LBB2344:
	.loc 13 45 42 discriminator 1 view .LVU2411
	.loc 13 45 33 is_stmt 0 view .LVU2412
	movs	r3, #0
	.loc 13 45 42 discriminator 1 view .LVU2413
	cmp	r5, #0
	beq	.L585
.LVL768:
.L582:
	.loc 13 46 25 is_stmt 1 view .LVU2414
	.loc 13 46 40 is_stmt 0 view .LVU2415
	ldrb	r2, [r6, r3]
	.loc 13 46 33 view .LVU2416
	strb	r2, [r4, r3]
	.loc 13 45 21 is_stmt 1 discriminator 3 view .LVU2417
	adds	r3, r3, #1
.LVL769:
	.loc 13 45 42 discriminator 1 view .LVU2418
	cmp	r3, r5
	bne	.L582
.LVL770:
.L585:
	.loc 13 45 42 is_stmt 0 discriminator 1 view .LVU2419
.LBE2344:
	.loc 13 48 21 is_stmt 1 view .LVU2420
.LBB2345:
.LBI2345:
	.loc 26 152 10 view .LVU2421
.LBB2346:
	.loc 26 153 9 view .LVU2422
	.loc 26 154 9 view .LVU2423
.LBB2347:
.LBI2347:
	.loc 20 190 5 view .LVU2424
	.loc 20 190 18 view .LVU2425
.LBB2348:
.LBI2348:
	.loc 21 51 21 view .LVU2426
.LBB2349:
	.loc 21 52 9 view .LVU2427
	.loc 21 53 9 view .LVU2428
	.syntax divided
@ 53 "J:\PROJECT\auroraOS\arch\arm\cortex-m\cm0plus/arch_impl.hpp" 1
	mrs r2, primask 
	cpsid i         
	
@ 0 "" 2
.LVL771:
	.loc 21 60 9 view .LVU2429
	.loc 21 60 9 is_stmt 0 view .LVU2430
	.thumb
	.syntax unified
.LBE2349:
.LBE2348:
.LBE2347:
	.loc 26 156 9 is_stmt 1 view .LVU2431
	.loc 26 162 19 is_stmt 0 view .LVU2432
	mov	r3, r8
	.loc 26 163 43 view .LVU2433
	mov	r1, r8
	.loc 26 162 19 view .LVU2434
	ldr	r3, [r3]
	.loc 26 157 46 view .LVU2435
	subs	r6, r6, #24
.LVL772:
	.loc 26 161 9 is_stmt 1 view .LVU2436
	.loc 26 162 9 view .LVU2437
	.loc 26 163 9 view .LVU2438
	.loc 26 163 43 is_stmt 0 view .LVU2439
	ldr	r1, [r1, #8]
.LVL773:
	.loc 26 164 9 is_stmt 1 view .LVU2440
	cmp	r6, r3
	bcc	.L583
	.loc 26 163 19 is_stmt 0 view .LVU2441
	adds	r3, r3, r1
.LVL774:
	.loc 26 164 38 discriminator 1 view .LVU2442
	cmp	r6, r3
	bcs	.L583
	.loc 26 167 9 is_stmt 1 view .LVU2443
	ldr	r3, .L645+8
.LVL775:
	.loc 26 167 9 is_stmt 0 view .LVU2444
	ldr	r1, [r6]
.LVL776:
	.loc 26 167 9 view .LVU2445
	cmp	r1, r3
	bne	.L583
	.loc 26 172 9 is_stmt 1 view .LVU2446
	ldrb	r3, [r6, #12]
	cmp	r3, #0
	bne	.L583
	.loc 26 176 9 view .LVU2447
	.loc 26 177 32 is_stmt 0 view .LVU2448
	str	r3, [r6, #8]
	.loc 26 178 27 view .LVU2449
	mov	r3, r8
	.loc 26 176 25 view .LVU2450
	movs	r1, #1
	.loc 26 178 27 view .LVU2451
	ldr	r3, [r3, #4]
	.loc 26 176 25 view .LVU2452
	strb	r1, [r6, #12]
	.loc 26 177 9 is_stmt 1 view .LVU2453
	.loc 26 178 9 view .LVU2454
	.loc 26 178 27 is_stmt 0 view .LVU2455
	ldr	r1, [r6, #4]
	subs	r3, r3, #24
	adds	r3, r3, r1
	mov	r1, r8
	str	r3, [r1, #4]
.LVL777:
.LBB2350:
.LBI2350:
	.loc 20 191 5 is_stmt 1 view .LVU2456
	.loc 20 191 19 view .LVU2457
.LBB2351:
.LBI2351:
	.loc 21 63 17 view .LVU2458
.LBB2352:
	.loc 21 64 9 view .LVU2459
	.syntax divided
@ 64 "J:\PROJECT\auroraOS\arch\arm\cortex-m\cm0plus/arch_impl.hpp" 1
	msr primask, r2 
	
@ 0 "" 2
.LVL778:
	.loc 21 64 9 is_stmt 0 view .LVU2460
	.thumb
	.syntax unified
.LBE2352:
.LBE2351:
.LBE2350:
	b	.L537
.LVL779:
.L583:
.LBB2353:
.LBI2353:
	.loc 20 191 5 is_stmt 1 view .LVU2461
	.loc 20 191 19 view .LVU2462
.LBB2354:
.LBB2355:
.LBI2355:
	.loc 21 63 17 view .LVU2463
.LBB2356:
	.loc 21 64 9 view .LVU2464
	.syntax divided
@ 64 "J:\PROJECT\auroraOS\arch\arm\cortex-m\cm0plus/arch_impl.hpp" 1
	msr primask, r2 
	
@ 0 "" 2
.LVL780:
	.loc 21 64 9 is_stmt 0 view .LVU2465
	.thumb
	.syntax unified
.LBE2356:
.LBE2355:
	.loc 20 191 48 view .LVU2466
	b	.L537
.LVL781:
.L633:
	.loc 20 191 48 view .LVU2467
.LBE2354:
.LBE2353:
.LBE2346:
.LBE2345:
.LBE2361:
.LBE2367:
.LBE2381:
.LBE2393:
.LBE2396:
.LBB2397:
.LBI2397:
	.loc 13 29 18 is_stmt 1 view .LVU2468
.LBB2398:
	.loc 13 32 13 view .LVU2469
	cmp	r1, #0
	bne	.LCB8458
	b	.L540	@long jump
.LCB8458:
	.loc 13 33 17 view .LVU2470
.LVL782:
.LBB2399:
.LBI2399:
	.loc 26 152 10 view .LVU2471
.LBB2400:
	.loc 26 153 9 view .LVU2472
	.loc 26 154 9 view .LVU2473
.LBB2401:
.LBI2401:
	.loc 20 190 5 view .LVU2474
	.loc 20 190 18 view .LVU2475
.LBB2402:
.LBI2402:
	.loc 21 51 21 view .LVU2476
.LBB2403:
	.loc 21 52 9 view .LVU2477
	.loc 21 53 9 view .LVU2478
	.syntax divided
@ 53 "J:\PROJECT\auroraOS\arch\arm\cortex-m\cm0plus/arch_impl.hpp" 1
	mrs r1, primask 
	cpsid i         
	
@ 0 "" 2
.LVL783:
	.loc 21 60 9 view .LVU2479
	.loc 21 60 9 is_stmt 0 view .LVU2480
	.thumb
	.syntax unified
.LBE2403:
.LBE2402:
.LBE2401:
	.loc 26 156 9 is_stmt 1 view .LVU2481
	.loc 26 162 60 is_stmt 0 view .LVU2482
	ldr	r2, .L645+4
.LVL784:
	.loc 26 157 46 view .LVU2483
	subs	r6, r6, #24
.LVL785:
	.loc 26 161 9 is_stmt 1 view .LVU2484
	.loc 26 162 9 view .LVU2485
	.loc 26 162 19 is_stmt 0 view .LVU2486
	ldr	r3, [r2]
.LVL786:
	.loc 26 163 9 is_stmt 1 view .LVU2487
	.loc 26 163 43 is_stmt 0 view .LVU2488
	ldr	r0, [r2, #8]
.LVL787:
	.loc 26 164 9 is_stmt 1 view .LVU2489
	cmp	r6, r3
	bcc	.L632
	.loc 26 163 19 is_stmt 0 view .LVU2490
	adds	r3, r3, r0
.LVL788:
	.loc 26 164 38 discriminator 1 view .LVU2491
	cmp	r6, r3
	bcs	.L632
	.loc 26 167 9 is_stmt 1 view .LVU2492
	ldr	r3, .L645+8
.LVL789:
	.loc 26 167 9 is_stmt 0 view .LVU2493
	ldr	r0, [r6]
.LVL790:
	.loc 26 167 9 view .LVU2494
	cmp	r0, r3
	bne	.L632
	.loc 26 172 9 is_stmt 1 view .LVU2495
	ldrb	r3, [r6, #12]
	cmp	r3, #0
	bne	.L632
	.loc 26 176 9 view .LVU2496
	.loc 26 176 25 is_stmt 0 view .LVU2497
	movs	r0, #1
	.loc 26 177 32 view .LVU2498
	str	r3, [r6, #8]
	.loc 26 178 27 view .LVU2499
	ldr	r3, [r2, #4]
	.loc 26 176 25 view .LVU2500
	strb	r0, [r6, #12]
	.loc 26 177 9 is_stmt 1 view .LVU2501
	.loc 26 178 9 view .LVU2502
	.loc 26 178 27 is_stmt 0 view .LVU2503
	ldr	r0, [r6, #4]
	subs	r3, r3, #24
	adds	r3, r3, r0
	str	r3, [r2, #4]
.L632:
.LVL791:
.LBB2404:
.LBI2404:
	.loc 20 191 5 is_stmt 1 view .LVU2504
	.loc 20 191 19 view .LVU2505
.LBB2405:
.LBI2405:
	.loc 21 63 17 view .LVU2506
.LBB2406:
	.loc 21 64 9 view .LVU2507
	.syntax divided
@ 64 "J:\PROJECT\auroraOS\arch\arm\cortex-m\cm0plus/arch_impl.hpp" 1
	msr primask, r1 
	
@ 0 "" 2
.LVL792:
	.loc 21 64 9 is_stmt 0 view .LVU2508
	.thumb
	.syntax unified
.LBE2406:
.LBE2405:
.LBE2404:
.LBE2400:
.LBE2399:
.LBE2398:
.LBE2397:
.LBB2407:
.LBB2394:
.LBB2382:
.LBB2368:
.LBB2362:
.LBB2357:
	.loc 13 45 33 view .LVU2509
	movs	r4, #0
	b	.L537
.LVL793:
.L635:
	.loc 13 45 33 view .LVU2510
.LBE2357:
.LBE2362:
.LBE2368:
.LBB2369:
.LBB2334:
.LBB2324:
.LBB2310:
.LBB2302:
	.loc 20 191 5 is_stmt 1 view .LVU2511
	.loc 20 191 19 view .LVU2512
.LBB2298:
	.loc 21 63 17 view .LVU2513
.LBB2295:
	.loc 21 64 9 view .LVU2514
	.syntax divided
@ 64 "J:\PROJECT\auroraOS\arch\arm\cortex-m\cm0plus/arch_impl.hpp" 1
	msr primask, fp 
	
@ 0 "" 2
.LVL794:
	.loc 21 64 9 is_stmt 0 view .LVU2515
	.thumb
	.syntax unified
.LBE2295:
.LBE2298:
.LBE2302:
.LBE2310:
.LBE2324:
	.loc 26 67 9 is_stmt 1 view .LVU2516
.LBB2325:
	.loc 21 83 21 view .LVU2517
.LBB2319:
	.loc 21 84 9 view .LVU2518
	.loc 21 84 16 is_stmt 0 view .LVU2519
	mov	r3, r10
.LBE2319:
.LBE2325:
.LBE2334:
.LBE2369:
.LBB2370:
.LBB2363:
.LBB2358:
	.loc 13 45 33 view .LVU2520
	movs	r4, #0
.LBE2358:
.LBE2363:
.LBE2370:
.LBB2371:
.LBB2335:
.LBB2326:
.LBB2320:
	.loc 21 84 16 view .LVU2521
	ldr	r3, [r3]
.LBE2320:
.LBE2326:
	.loc 26 68 9 is_stmt 1 view .LVU2522
	.loc 26 69 9 view .LVU2523
.LVL795:
	.loc 26 69 9 is_stmt 0 view .LVU2524
.LBE2335:
.LBE2371:
	.loc 13 41 17 is_stmt 1 view .LVU2525
	b	.L537
.LVL796:
.L639:
	.loc 13 41 17 is_stmt 0 view .LVU2526
.LBE2382:
.LBB2383:
.LBB2239:
.LBB2230:
.LBB2220:
.LBB2214:
	.loc 20 191 5 is_stmt 1 view .LVU2527
	.loc 20 191 19 view .LVU2528
.LBB2213:
	.loc 21 63 17 view .LVU2529
.LBB2212:
	.loc 21 64 9 view .LVU2530
	.syntax divided
@ 64 "J:\PROJECT\auroraOS\arch\arm\cortex-m\cm0plus/arch_impl.hpp" 1
	msr primask, r9 
	
@ 0 "" 2
.LVL797:
	.loc 21 64 9 is_stmt 0 view .LVU2531
	.thumb
	.syntax unified
.LBE2212:
.LBE2213:
.LBE2214:
.LBE2220:
.LBE2230:
	.loc 26 67 9 is_stmt 1 view .LVU2532
.LBB2231:
	.loc 21 83 21 view .LVU2533
.LBB2228:
	.loc 21 84 9 view .LVU2534
	.loc 21 84 16 is_stmt 0 view .LVU2535
	mov	r3, r10
.LBE2228:
.LBE2231:
.LBE2239:
.LBE2383:
.LBB2384:
.LBB2372:
.LBB2364:
.LBB2359:
	.loc 13 45 33 view .LVU2536
	movs	r4, #0
.LBE2359:
.LBE2364:
.LBE2372:
.LBE2384:
.LBB2385:
.LBB2240:
.LBB2232:
.LBB2229:
	.loc 21 84 16 view .LVU2537
	ldr	r3, [r3]
.LBE2229:
.LBE2232:
	.loc 26 68 9 is_stmt 1 view .LVU2538
	b	.L537
.LVL798:
.L640:
.LBB2233:
.LBB2221:
.LBB2215:
.LBB2189:
.LBB2186:
.LBB2184:
.LBB2177:
	.loc 26 100 17 view .LVU2539
	.loc 26 102 17 view .LVU2540
.LBB2178:
	.loc 26 102 75 is_stmt 0 view .LVU2541
	movs	r0, r7
.LVL799:
	.loc 26 102 75 view .LVU2542
.LBE2178:
	.loc 26 122 21 view .LVU2543
	mov	r1, r8
.LVL800:
.LBB2180:
	.loc 26 102 75 view .LVU2544
	adds	r0, r0, #56
.LBE2180:
	.loc 26 122 21 view .LVU2545
	ldr	r1, [r1, #4]
.LBB2181:
	.loc 26 102 17 view .LVU2546
	cmp	r2, r0
	bcs	.L550
	.loc 26 102 17 view .LVU2547
.LBE2181:
	.loc 26 117 17 is_stmt 1 view .LVU2548
	.loc 26 118 17 view .LVU2549
	.loc 26 119 17 view .LVU2550
	.loc 26 122 21 view .LVU2551
	.loc 26 122 39 is_stmt 0 view .LVU2552
	adds	r1, r1, #24
	subs	r2, r1, r2
.LVL801:
.L551:
	.loc 26 117 34 view .LVU2553
	movs	r1, #0
	.loc 26 125 85 view .LVU2554
	movs	r4, r3
	.loc 26 117 34 view .LVU2555
	strb	r1, [r3, #12]
	.loc 26 120 39 view .LVU2556
	mov	r1, r8
	.loc 26 118 41 view .LVU2557
	str	r5, [r3, #8]
	.loc 26 120 39 view .LVU2558
	str	r2, [r1, #4]
	.loc 26 125 17 is_stmt 1 view .LVU2559
	.loc 26 125 85 is_stmt 0 view .LVU2560
	adds	r4, r4, #24
.LVL802:
	.loc 26 125 85 view .LVU2561
.LBE2177:
.LBE2184:
.LBE2186:
.LBE2189:
.LBE2215:
	.loc 26 86 9 is_stmt 1 view .LVU2562
	adds	r3, r3, #24
	beq	.LCB8790
	b	.L552	@long jump
.LCB8790:
	.loc 26 86 9 is_stmt 0 view .LVU2563
	b	.L553
.LVL803:
.L563:
	.loc 26 86 9 view .LVU2564
.LBE2221:
.LBE2233:
.LBE2240:
.LBE2385:
.LBB2386:
.LBB2373:
.LBB2336:
.LBB2327:
.LBB2311:
.LBB2303:
.LBB2270:
.LBB2267:
.LBB2265:
.LBB2263:
	.loc 26 117 17 is_stmt 1 view .LVU2565
	.loc 26 118 17 view .LVU2566
	.loc 26 119 17 view .LVU2567
	.loc 26 122 21 view .LVU2568
	.loc 26 122 39 is_stmt 0 view .LVU2569
	adds	r1, r1, #24
	subs	r2, r1, r2
	b	.L564
.LVL804:
.L550:
	.loc 26 122 39 view .LVU2570
.LBE2263:
.LBE2265:
.LBE2267:
.LBE2270:
.LBE2303:
.LBE2311:
.LBE2327:
.LBE2336:
.LBE2373:
.LBE2386:
.LBB2387:
.LBB2241:
.LBB2234:
.LBB2222:
.LBB2216:
.LBB2190:
.LBB2187:
.LBB2185:
.LBB2183:
.LBB2182:
.LBB2179:
	.loc 26 103 21 is_stmt 1 view .LVU2571
	.loc 26 104 21 view .LVU2572
	.loc 26 105 62 is_stmt 0 view .LVU2573
	adds	r0, r6, r3
.LVL805:
	.loc 26 107 21 is_stmt 1 view .LVU2574
	.loc 26 108 54 is_stmt 0 view .LVU2575
	subs	r2, r2, r6
	.loc 26 108 38 view .LVU2576
	str	r2, [r0, #4]
	.loc 26 109 48 view .LVU2577
	movs	r2, #0
	str	r2, [r0, #8]
	.loc 26 110 41 view .LVU2578
	adds	r2, r2, #1
	strb	r2, [r0, #12]
	.loc 26 107 39 view .LVU2579
	ldr	r4, .L645+8
	.loc 26 111 49 view .LVU2580
	ldr	r2, [r3, #16]
	.loc 26 107 39 view .LVU2581
	str	r4, [r0]
	.loc 26 108 21 is_stmt 1 view .LVU2582
	.loc 26 109 21 view .LVU2583
	.loc 26 110 21 view .LVU2584
	.loc 26 111 21 view .LVU2585
	.loc 26 111 38 is_stmt 0 view .LVU2586
	str	r2, [r0, #16]
	.loc 26 113 21 is_stmt 1 view .LVU2587
	.loc 26 113 35 is_stmt 0 view .LVU2588
	str	r6, [r3, #4]
	.loc 26 114 21 is_stmt 1 view .LVU2589
	.loc 26 114 35 is_stmt 0 view .LVU2590
	str	r0, [r3, #16]
	.loc 26 114 35 view .LVU2591
.LBE2179:
.LBE2182:
	.loc 26 117 17 is_stmt 1 view .LVU2592
	.loc 26 118 17 view .LVU2593
	.loc 26 119 17 view .LVU2594
	.loc 26 120 21 view .LVU2595
	.loc 26 120 39 is_stmt 0 view .LVU2596
	subs	r2, r1, r6
	b	.L551
.L646:
	.align	2
.L645:
	.word	_ZN4Arch16g_sw_cycle_countE
	.word	_ZZN10KernelHeap8instanceEvE4heap
	.word	1296387407
.LVL806:
.L643:
	.loc 26 120 39 view .LVU2597
.LBE2183:
.LBE2185:
.LBE2187:
.LBE2190:
.LBE2216:
.LBE2222:
.LBE2234:
.LBE2241:
.LBE2387:
.LBB2388:
.LBB2374:
.LBB2337:
.LBB2328:
.LBB2312:
.LBB2304:
.LBB2288:
.LBB2286:
.LBB2284:
.LBB2278:
	.loc 26 100 17 is_stmt 1 view .LVU2598
	.loc 26 102 17 view .LVU2599
	.loc 26 120 21 is_stmt 0 view .LVU2600
	mov	r2, r8
	ldr	r1, [r2, #4]
.LBB2279:
	.loc 26 102 75 view .LVU2601
	mov	r2, r9
	adds	r2, r2, #56
	.loc 26 102 17 view .LVU2602
	cmp	r3, r2
	bcc	.L576
.LBB2280:
	.loc 26 103 21 is_stmt 1 view .LVU2603
.LVL807:
	.loc 26 104 21 view .LVU2604
	.loc 26 105 62 is_stmt 0 view .LVU2605
	adds	r2, r7, r4
.LVL808:
	.loc 26 107 21 is_stmt 1 view .LVU2606
	.loc 26 108 54 is_stmt 0 view .LVU2607
	subs	r3, r3, r7
	.loc 26 108 38 view .LVU2608
	str	r3, [r2, #4]
	.loc 26 109 48 view .LVU2609
	movs	r3, #0
	str	r3, [r2, #8]
	.loc 26 110 41 view .LVU2610
	adds	r3, r3, #1
	strb	r3, [r2, #12]
	.loc 26 107 39 view .LVU2611
	ldr	r0, .L647
	.loc 26 111 49 view .LVU2612
	ldr	r3, [r4, #16]
	.loc 26 107 39 view .LVU2613
	str	r0, [r2]
	.loc 26 108 21 is_stmt 1 view .LVU2614
	.loc 26 109 21 view .LVU2615
	.loc 26 110 21 view .LVU2616
	.loc 26 111 21 view .LVU2617
	.loc 26 111 38 is_stmt 0 view .LVU2618
	str	r3, [r2, #16]
	.loc 26 113 21 is_stmt 1 view .LVU2619
.LBE2280:
.LBE2279:
	.loc 26 120 39 is_stmt 0 view .LVU2620
	subs	r1, r1, r7
.LBB2282:
.LBB2281:
	.loc 26 113 35 view .LVU2621
	str	r7, [r4, #4]
	.loc 26 114 21 is_stmt 1 view .LVU2622
	.loc 26 114 35 is_stmt 0 view .LVU2623
	str	r2, [r4, #16]
	.loc 26 114 35 view .LVU2624
.LBE2281:
.LBE2282:
	.loc 26 117 17 is_stmt 1 view .LVU2625
	.loc 26 118 17 view .LVU2626
	.loc 26 119 17 view .LVU2627
	.loc 26 120 21 view .LVU2628
.LVL809:
.L577:
	.loc 26 117 34 is_stmt 0 view .LVU2629
	movs	r2, #0
	.loc 26 120 39 view .LVU2630
	mov	r3, r8
	.loc 26 117 34 view .LVU2631
	strb	r2, [r4, #12]
	.loc 26 118 41 view .LVU2632
	str	r5, [r4, #8]
	.loc 26 120 39 view .LVU2633
	str	r1, [r3, #4]
	.loc 26 125 17 is_stmt 1 view .LVU2634
	.loc 26 125 85 is_stmt 0 view .LVU2635
	adds	r4, r4, #24
.LVL810:
	.loc 26 125 106 view .LVU2636
	b	.L578
.LVL811:
.L644:
	.loc 26 125 106 view .LVU2637
.LBE2278:
.LBE2284:
.LBE2286:
.LBE2288:
.LBE2304:
.LBE2312:
.LBE2328:
.LBE2337:
.LBE2374:
.LBE2388:
.LBB2389:
.LBB2242:
.LBB2235:
.LBB2223:
.LBB2217:
.LBB2207:
.LBB2205:
.LBB2203:
.LBB2198:
	.loc 26 100 17 is_stmt 1 view .LVU2638
	.loc 26 102 17 view .LVU2639
	.loc 26 120 21 is_stmt 0 view .LVU2640
	mov	r2, r8
.LBB2199:
	.loc 26 102 75 view .LVU2641
	adds	r7, r7, #56
.LVL812:
	.loc 26 102 75 view .LVU2642
.LBE2199:
	.loc 26 120 21 view .LVU2643
	ldr	r2, [r2, #4]
.LBB2201:
	.loc 26 102 17 view .LVU2644
	cmp	r3, r7
	bcc	.L556
.LBB2200:
	.loc 26 103 21 is_stmt 1 view .LVU2645
.LVL813:
	.loc 26 104 21 view .LVU2646
	.loc 26 105 62 is_stmt 0 view .LVU2647
	adds	r1, r6, r4
.LVL814:
	.loc 26 107 21 is_stmt 1 view .LVU2648
	.loc 26 108 54 is_stmt 0 view .LVU2649
	subs	r3, r3, r6
	.loc 26 108 38 view .LVU2650
	str	r3, [r1, #4]
	.loc 26 109 48 view .LVU2651
	movs	r3, #0
	str	r3, [r1, #8]
	.loc 26 110 41 view .LVU2652
	adds	r3, r3, #1
	strb	r3, [r1, #12]
	.loc 26 107 39 view .LVU2653
	ldr	r0, .L647
	.loc 26 111 49 view .LVU2654
	ldr	r3, [r4, #16]
	.loc 26 107 39 view .LVU2655
	str	r0, [r1]
	.loc 26 108 21 is_stmt 1 view .LVU2656
	.loc 26 109 21 view .LVU2657
	.loc 26 110 21 view .LVU2658
	.loc 26 111 21 view .LVU2659
	.loc 26 111 38 is_stmt 0 view .LVU2660
	str	r3, [r1, #16]
	.loc 26 113 21 is_stmt 1 view .LVU2661
	.loc 26 113 35 is_stmt 0 view .LVU2662
	str	r6, [r4, #4]
	.loc 26 114 21 is_stmt 1 view .LVU2663
	.loc 26 114 35 is_stmt 0 view .LVU2664
	str	r1, [r4, #16]
	.loc 26 114 35 view .LVU2665
.LBE2200:
.LBE2201:
	.loc 26 117 17 is_stmt 1 view .LVU2666
	.loc 26 118 17 view .LVU2667
	.loc 26 119 17 view .LVU2668
	.loc 26 120 21 view .LVU2669
	.loc 26 120 39 is_stmt 0 view .LVU2670
	subs	r3, r2, r6
.LVL815:
.L557:
	.loc 26 117 34 view .LVU2671
	movs	r2, #0
	strb	r2, [r4, #12]
	.loc 26 120 39 view .LVU2672
	mov	r2, r8
	.loc 26 118 41 view .LVU2673
	str	r5, [r4, #8]
	.loc 26 120 39 view .LVU2674
	str	r3, [r2, #4]
	.loc 26 125 17 is_stmt 1 view .LVU2675
	.loc 26 125 85 is_stmt 0 view .LVU2676
	adds	r4, r4, #24
.LVL816:
	.loc 26 125 106 view .LVU2677
	b	.L552
.LVL817:
.L576:
	.loc 26 125 106 view .LVU2678
.LBE2198:
.LBE2203:
.LBE2205:
.LBE2207:
.LBE2217:
.LBE2223:
.LBE2235:
.LBE2242:
.LBE2389:
.LBB2390:
.LBB2375:
.LBB2338:
.LBB2329:
.LBB2313:
.LBB2305:
.LBB2289:
.LBB2287:
.LBB2285:
.LBB2283:
	.loc 26 117 17 is_stmt 1 view .LVU2679
	.loc 26 118 17 view .LVU2680
	.loc 26 119 17 view .LVU2681
	.loc 26 122 21 view .LVU2682
	.loc 26 122 39 is_stmt 0 view .LVU2683
	adds	r1, r1, #24
	subs	r1, r1, r3
	b	.L577
.LVL818:
.L556:
	.loc 26 122 39 view .LVU2684
.LBE2283:
.LBE2285:
.LBE2287:
.LBE2289:
.LBE2305:
.LBE2313:
.LBE2329:
.LBE2338:
.LBE2375:
.LBE2390:
.LBB2391:
.LBB2243:
.LBB2236:
.LBB2224:
.LBB2218:
.LBB2208:
.LBB2206:
.LBB2204:
.LBB2202:
	.loc 26 117 17 is_stmt 1 view .LVU2685
	.loc 26 118 17 view .LVU2686
	.loc 26 119 17 view .LVU2687
	.loc 26 122 21 view .LVU2688
	.loc 26 122 39 is_stmt 0 view .LVU2689
	adds	r2, r2, #24
	subs	r3, r2, r3
	b	.L557
.LVL819:
.L570:
	.loc 26 122 39 view .LVU2690
.LBE2202:
.LBE2204:
.LBE2206:
.LBE2208:
.LBE2218:
.LBE2224:
.LBE2236:
.LBE2243:
.LBE2391:
.LBB2392:
.LBB2376:
.LBB2339:
.LBB2330:
.LBB2314:
.LBB2306:
.LBB2290:
	.loc 26 98 24 is_stmt 1 view .LVU2691
	.loc 26 98 24 is_stmt 0 view .LVU2692
.LBE2290:
.LBE2306:
.LBB2307:
	.loc 20 191 5 is_stmt 1 view .LVU2693
	.loc 20 191 19 view .LVU2694
.LBB2299:
	.loc 21 63 17 view .LVU2695
.LBB2296:
	.loc 21 64 9 view .LVU2696
	.syntax divided
@ 64 "J:\PROJECT\auroraOS\arch\arm\cortex-m\cm0plus/arch_impl.hpp" 1
	msr primask, fp 
	
@ 0 "" 2
.LVL820:
	.loc 21 64 9 is_stmt 0 view .LVU2697
	.thumb
	.syntax unified
.LBE2296:
.LBE2299:
.LBE2307:
.LBE2314:
.LBE2330:
	.loc 26 67 9 is_stmt 1 view .LVU2698
.LBB2331:
	.loc 21 83 21 view .LVU2699
.LBB2321:
	.loc 21 84 9 view .LVU2700
	.loc 21 84 16 is_stmt 0 view .LVU2701
	mov	r3, r10
	ldr	r1, [r3]
.LVL821:
	.loc 21 84 16 view .LVU2702
.LBE2321:
.LBE2331:
	.loc 26 68 9 is_stmt 1 view .LVU2703
	cmp	r5, #64
	bls	.LCB9330
	b	.L540	@long jump
.LCB9330:
	.loc 26 68 25 discriminator 1 view .LVU2704
	.loc 26 67 43 is_stmt 0 discriminator 1 view .LVU2705
	ldr	r3, [sp, #8]
	.loc 26 68 40 discriminator 1 view .LVU2706
	movs	r0, #2
	.loc 26 67 43 discriminator 1 view .LVU2707
	subs	r1, r1, r3
.LVL822:
	.loc 26 68 40 discriminator 1 view .LVU2708
	bl	_ZN7Metrics6recordE8MetricIdm
.LVL823:
	.loc 26 69 9 is_stmt 1 view .LVU2709
	.loc 26 69 9 is_stmt 0 view .LVU2710
.LBE2339:
.LBE2376:
	.loc 13 41 17 is_stmt 1 view .LVU2711
.LBB2377:
.LBB2365:
.LBB2360:
	.loc 13 45 33 is_stmt 0 view .LVU2712
	movs	r4, #0
	b	.L537
.L648:
	.align	2
.L647:
	.word	1296387407
.LBE2360:
.LBE2365:
.LBE2377:
.LBE2392:
.LBE2394:
.LBE2407:
	.cfi_endproc
.LFE689:
	.size	_ZN17MiniProgramEngine13lua_allocatorEPvS0_jj, .-_ZN17MiniProgramEngine13lua_allocatorEPvS0_jj
	.section	.rodata._ZN12TaskInfoNode4readEPciiPv.str1.4,"aMS",%progbits,1
	.align	2
.LC92:
	.ascii	"TID\011STATE\011SLEEP_TICKS\012\000"
	.align	2
.LC94:
	.ascii	"-----------------------------\012\000"
	.align	2
.LC100:
	.ascii	"RUN\011\000"
	.align	2
.LC102:
	.ascii	"RDY\011\000"
	.align	2
.LC104:
	.ascii	"SLP\011\000"
	.align	2
.LC106:
	.ascii	"BNT\011\000"
	.align	2
.LC108:
	.ascii	"SUS\011\000"
	.align	2
.LC110:
	.ascii	"TRM\011\000"
	.align	2
.LC112:
	.ascii	"UNK\011\000"
	.section	.text._ZN12TaskInfoNode4readEPciiPv,"axG",%progbits,_ZN12TaskInfoNode4readEPciiPv,comdat
	.align	1
	.p2align 2,,3
	.weak	_ZN12TaskInfoNode4readEPciiPv
	.syntax unified
	.code	16
	.thumb_func
	.type	_ZN12TaskInfoNode4readEPciiPv, %function
_ZN12TaskInfoNode4readEPciiPv:
.LVL824:
.LFB810:
	.loc 11 55 9 is_stmt 1 view -0
	.cfi_startproc
	@ args = 4, pretend = 0, frame = 40
	@ frame_needed = 0, uses_anonymous_args = 0
	.loc 11 56 9 view .LVU2714
	.loc 11 55 9 is_stmt 0 view .LVU2715
	push	{r4, r5, r6, r7, lr}
	.cfi_def_cfa_offset 20
	.cfi_offset 4, -20
	.cfi_offset 5, -16
	.cfi_offset 6, -12
	.cfi_offset 7, -8
	.cfi_offset 14, -4
	mov	r5, r8
	mov	lr, fp
	mov	r7, r10
	mov	r6, r9
	push	{r5, r6, r7, lr}
	.cfi_def_cfa_offset 36
	.cfi_offset 8, -36
	.cfi_offset 9, -32
	.cfi_offset 10, -28
	.cfi_offset 11, -24
	mov	r8, r1
	.loc 11 56 32 discriminator 1 view .LVU2716
	movs	r4, #0
	.loc 11 55 9 view .LVU2717
	sub	sp, sp, #44
	.cfi_def_cfa_offset 80
	.loc 11 56 9 view .LVU2718
	cmp	r3, #0
	ble	.L729
.LVL825:
.L649:
	.loc 11 97 5 view .LVU2719
	movs	r0, r4
	add	sp, sp, #44
	@ sp needed
.LVL826:
	.loc 11 97 5 view .LVU2720
	pop	{r4, r5, r6, r7}
	mov	fp, r7
	mov	r10, r6
	mov	r9, r5
	mov	r8, r4
	pop	{r4, r5, r6, r7, pc}
.LVL827:
.L729:
	.loc 11 58 9 is_stmt 1 view .LVU2721
	.loc 11 59 9 view .LVU2722
	.loc 11 60 9 view .LVU2723
	.loc 11 67 9 view .LVU2724
.LBB2452:
.LBI2452:
	.loc 11 59 27 view .LVU2725
.LBB2453:
	.loc 11 59 48 view .LVU2726
	.loc 11 59 58 discriminator 1 view .LVU2727
	.loc 11 59 71 is_stmt 0 discriminator 2 view .LVU2728
	subs	r7, r2, #1
	ldr	r3, .L732
.LVL828:
	.loc 11 59 55 discriminator 1 view .LVU2729
	movs	r2, #84
.LVL829:
	.loc 11 59 87 discriminator 4 view .LVU2730
	subs	r1, r1, #1
.LVL830:
	.loc 11 59 87 discriminator 4 view .LVU2731
	b	.L651
.LVL831:
.L653:
	.loc 11 59 76 is_stmt 1 discriminator 4 view .LVU2732
	.loc 11 59 91 is_stmt 0 discriminator 4 view .LVU2733
	adds	r3, r3, #1
.LVL832:
	.loc 11 59 83 discriminator 4 view .LVU2734
	adds	r4, r4, #1
.LVL833:
	.loc 11 59 87 discriminator 4 view .LVU2735
	strb	r2, [r1, r4]
	.loc 11 59 58 is_stmt 1 discriminator 1 view .LVU2736
	.loc 11 59 55 is_stmt 0 discriminator 1 view .LVU2737
	ldrb	r2, [r3]
	.loc 11 59 58 discriminator 1 view .LVU2738
	cmp	r2, #0
	bne	.LCB9475
	b	.L690	@long jump
.LCB9475:
.LVL834:
.L651:
	.loc 11 59 58 discriminator 2 view .LVU2739
	cmp	r7, r4
	bgt	.L653
.LVL835:
.L654:
	.loc 11 59 58 discriminator 2 view .LVU2740
.LBE2453:
.LBE2452:
	.loc 11 70 9 is_stmt 1 view .LVU2741
.LBB2454:
.LBI2454:
	.loc 20 200 23 view .LVU2742
.LBB2455:
	.loc 20 201 9 view .LVU2743
	.loc 20 201 26 is_stmt 0 view .LVU2744
	ldr	r6, .L732+4
	movs	r5, #1
	ldr	r3, [r6]
	movs	r2, r3
	ands	r2, r5
	mov	r9, r2
	tst	r3, r5
	bne	.LCB9502
	b	.L726	@long jump
.LCB9502:
.L731:
	ldr	r3, .L732+8
	str	r3, [sp, #4]
.LVL836:
.L656:
	.loc 20 202 9 is_stmt 1 view .LVU2745
	.loc 20 202 9 is_stmt 0 view .LVU2746
.LBE2455:
.LBE2454:
	.loc 11 71 9 is_stmt 1 view .LVU2747
.LBB2464:
.LBI2464:
	.loc 21 43 17 view .LVU2748
.LBB2465:
	.loc 21 44 9 view .LVU2749
	.syntax divided
@ 44 "J:\PROJECT\auroraOS\arch\arm\cortex-m\cm0plus/arch_impl.hpp" 1
	cpsid i
@ 0 "" 2
	.thumb
	.syntax unified
.LBE2465:
.LBE2464:
	.loc 11 72 9 view .LVU2750
.LVL837:
.LBB2466:
.LBI2466:
	.loc 20 570 9 view .LVU2751
.LBB2467:
	.loc 20 570 34 view .LVU2752
	.loc 20 570 41 is_stmt 0 view .LVU2753
	ldr	r3, .L732+12
	ldr	r2, [sp, #4]
	ldr	r1, [r2, r3]
	str	r1, [sp, #8]
.LVL838:
	.loc 20 570 41 view .LVU2754
.LBE2467:
.LBE2466:
	.loc 11 74 9 is_stmt 1 view .LVU2755
.LBB2468:
	.loc 11 74 27 discriminator 1 view .LVU2756
	cmp	r1, #0
	bgt	.LCB9541
	b	.L657	@long jump
.LCB9541:
.LBB2469:
.LBB2470:
.LBB2471:
	.loc 11 59 87 is_stmt 0 discriminator 4 view .LVU2757
	movs	r0, #10
	mov	r10, r0
	ldr	r0, .L732+16
.LBE2471:
.LBE2470:
.LBE2469:
	.loc 11 74 18 view .LVU2758
	movs	r3, #0
	str	r0, [sp, #20]
.LBB2533:
.LBB2473:
.LBB2474:
	.loc 11 59 87 discriminator 4 view .LVU2759
	movs	r0, #9
	adds	r2, r2, #12
.LBE2474:
.LBE2473:
.LBE2533:
	.loc 11 74 18 view .LVU2760
	str	r3, [sp]
.LBB2534:
.LBB2478:
.LBB2479:
.LBB2480:
	.loc 11 64 55 discriminator 3 view .LVU2761
	mov	r3, r8
.LBE2480:
.LBE2479:
.LBE2478:
.LBB2489:
.LBB2475:
	.loc 11 59 87 discriminator 4 view .LVU2762
	mov	r9, r0
	mov	ip, r2
	mov	r6, r8
.LBE2475:
.LBE2489:
.LBB2490:
.LBB2485:
.LBB2481:
	.loc 11 64 55 discriminator 3 view .LVU2763
	subs	r3, r3, #1
.LVL839:
.L688:
	.loc 11 64 55 discriminator 3 view .LVU2764
.LBE2481:
.LBE2485:
.LBE2490:
	.loc 11 75 13 is_stmt 1 view .LVU2765
.LBB2491:
.LBI2491:
	.loc 20 571 23 view .LVU2766
.LBB2492:
	.loc 20 572 9 view .LVU2767
	.loc 20 572 24 is_stmt 0 discriminator 1 view .LVU2768
	ldr	r2, [sp]
	cmp	r1, r2
	bls	.L658
	.loc 20 572 70 is_stmt 1 discriminator 2 view .LVU2769
.LVL840:
	.loc 20 572 70 is_stmt 0 discriminator 2 view .LVU2770
.LBE2492:
.LBE2491:
	.loc 11 76 13 is_stmt 1 view .LVU2771
	.loc 11 78 13 view .LVU2772
	.loc 11 78 23 is_stmt 0 view .LVU2773
	mov	r2, ip
	ldr	r2, [r2, #4]
	mov	fp, r2
.LVL841:
.LBB2494:
.LBI2478:
	.loc 11 60 27 is_stmt 1 view .LVU2774
.LBB2486:
.LBB2482:
	.loc 11 61 13 view .LVU2775
	.loc 11 61 28 view .LVU2776
	.loc 11 62 13 view .LVU2777
	cmp	r2, #0
	beq	.LCB9628
	b	.L692	@long jump
.LCB9628:
.LVL842:
	.loc 11 62 13 is_stmt 0 view .LVU2778
	movs	r1, #48
	add	r2, sp, #24
.LVL843:
	.loc 11 62 13 view .LVU2779
	strb	r1, [r2]
.LVL844:
	.loc 11 63 24 is_stmt 1 discriminator 1 view .LVU2780
	.loc 11 62 35 is_stmt 0 discriminator 1 view .LVU2781
	movs	r2, #1
	mov	r8, r2
.LVL845:
.L660:
	.loc 11 64 26 is_stmt 1 discriminator 1 view .LVU2782
	mov	r2, r8
	subs	r1, r2, #1
	add	r2, sp, #24
	mov	fp, r2
	mov	r2, r8
	adds	r2, r4, r2
	movs	r5, r2
	add	r1, r1, fp
	b	.L661
.L663:
	.loc 11 64 44 discriminator 3 view .LVU2783
.LVL846:
	.loc 11 64 55 is_stmt 0 discriminator 3 view .LVU2784
	ldrb	r0, [r1]
	.loc 11 64 51 discriminator 3 view .LVU2785
	adds	r4, r4, #1
.LVL847:
	.loc 11 64 55 discriminator 3 view .LVU2786
	strb	r0, [r3, r4]
	.loc 11 64 26 is_stmt 1 discriminator 1 view .LVU2787
	subs	r1, r1, #1
	cmp	r4, r2
	beq	.L662
.LVL848:
.L661:
	.loc 11 64 26 is_stmt 0 discriminator 2 view .LVU2788
	cmp	r4, r7
	blt	.L663
.LVL849:
	.loc 11 64 26 discriminator 2 view .LVU2789
.LBE2482:
.LBE2486:
.LBE2494:
	.loc 11 79 13 is_stmt 1 view .LVU2790
.LBB2495:
.LBI2473:
	.loc 11 59 27 view .LVU2791
.LBB2476:
	.loc 11 59 48 view .LVU2792
	.loc 11 59 58 discriminator 1 view .LVU2793
	.loc 11 59 58 is_stmt 0 discriminator 1 view .LVU2794
.LBE2476:
.LBE2495:
.LBB2496:
.LBB2487:
.LBB2483:
	movs	r5, r4
	b	.L665
.LVL850:
.L685:
	.loc 11 59 58 discriminator 1 view .LVU2795
.LBE2483:
.LBE2487:
.LBE2496:
	.loc 11 91 13 is_stmt 1 view .LVU2796
.LBB2497:
.LBI2470:
	.loc 11 59 27 view .LVU2797
.LBB2472:
	.loc 11 59 48 view .LVU2798
	.loc 11 59 58 discriminator 1 view .LVU2799
	.loc 11 59 58 is_stmt 0 discriminator 2 view .LVU2800
	cmp	r7, r4
	ble	.L658
	.loc 11 59 76 is_stmt 1 discriminator 4 view .LVU2801
.LVL851:
	.loc 11 59 87 is_stmt 0 discriminator 4 view .LVU2802
	mov	r2, r10
	.loc 11 59 83 discriminator 4 view .LVU2803
	adds	r4, r4, #1
.LVL852:
	.loc 11 59 87 discriminator 4 view .LVU2804
	strb	r2, [r6, r5]
	.loc 11 59 58 is_stmt 1 discriminator 1 view .LVU2805
.LVL853:
.L658:
	.loc 11 59 58 is_stmt 0 discriminator 1 view .LVU2806
.LBE2472:
.LBE2497:
.LBE2534:
	.loc 11 74 9 is_stmt 1 discriminator 2 view .LVU2807
	.loc 11 74 27 is_stmt 0 discriminator 1 view .LVU2808
	movs	r1, #133
	lsls	r1, r1, #2
	mov	r8, r1
	.loc 11 74 9 discriminator 2 view .LVU2809
	ldr	r2, [sp]
	.loc 11 74 27 discriminator 1 view .LVU2810
	ldr	r1, [sp, #8]
	.loc 11 74 9 discriminator 2 view .LVU2811
	adds	r2, r2, #1
	str	r2, [sp]
.LVL854:
	.loc 11 74 27 is_stmt 1 discriminator 1 view .LVU2812
	add	ip, ip, r8
	cmp	r1, r2
	bne	.LCB9760
	b	.L728	@long jump
.LCB9760:
.LBB2535:
.LBB2498:
.LBB2493:
	.loc 20 572 58 is_stmt 0 discriminator 1 view .LVU2813
	ldr	r2, .L732+12
.LVL855:
	.loc 20 572 58 discriminator 1 view .LVU2814
	ldr	r1, [sp, #4]
	ldr	r1, [r1, r2]
	b	.L688
.LVL856:
.L662:
	.loc 20 572 58 discriminator 1 view .LVU2815
.LBE2493:
.LBE2498:
	.loc 11 79 13 is_stmt 1 view .LVU2816
.LBB2499:
	.loc 11 59 27 view .LVU2817
.LBB2477:
	.loc 11 59 48 view .LVU2818
	.loc 11 59 58 discriminator 1 view .LVU2819
	.loc 11 59 58 is_stmt 0 discriminator 2 view .LVU2820
	cmp	r7, r4
	ble	.L665
	.loc 11 59 76 is_stmt 1 discriminator 4 view .LVU2821
.LVL857:
	.loc 11 59 87 is_stmt 0 discriminator 4 view .LVU2822
	mov	r2, r9
	.loc 11 59 83 discriminator 4 view .LVU2823
	adds	r5, r4, #1
.LVL858:
	.loc 11 59 87 discriminator 4 view .LVU2824
	strb	r2, [r6, r4]
	.loc 11 59 58 is_stmt 1 discriminator 1 view .LVU2825
.LVL859:
.L665:
	.loc 11 59 58 is_stmt 0 discriminator 1 view .LVU2826
.LBE2477:
.LBE2499:
	.loc 11 82 13 is_stmt 1 view .LVU2827
	mov	r2, ip
	ldr	r2, [r2]
	cmp	r2, #5
	bls	.LCB9815
	b	.L693	@long jump
.LCB9815:
	ldr	r1, [sp, #20]
	lsls	r2, r2, #2
	ldr	r2, [r1, r2]
	.loc 11 82 22 is_stmt 0 view .LVU2828
	movs	r4, r5
	mov	pc, r2
	.section	.rodata._ZN12TaskInfoNode4readEPciiPv,"aG",%progbits,_ZN12TaskInfoNode4readEPciiPv,comdat
	.align	2
.L668:
	.word	.L694
	.word	.L695
	.word	.L696
	.word	.L697
	.word	.L698
	.word	.L699
	.section	.text._ZN12TaskInfoNode4readEPciiPv,"axG",%progbits,_ZN12TaskInfoNode4readEPciiPv,comdat
.L698:
.LBB2500:
.LBB2501:
	.loc 11 59 55 discriminator 1 view .LVU2829
	ldr	r1, .L732+20
.LBE2501:
.LBE2500:
	.loc 11 82 22 view .LVU2830
	movs	r2, #84
.LBB2503:
.LBB2502:
	.loc 11 59 87 discriminator 4 view .LVU2831
	subs	r0, r6, #1
	.loc 11 59 55 discriminator 1 view .LVU2832
	subs	r1, r1, r5
	b	.L669
.LVL860:
.L680:
	.loc 11 59 76 is_stmt 1 discriminator 4 view .LVU2833
	.loc 11 59 83 is_stmt 0 discriminator 4 view .LVU2834
	adds	r4, r4, #1
.LVL861:
	.loc 11 59 87 discriminator 4 view .LVU2835
	strb	r2, [r0, r4]
	.loc 11 59 58 is_stmt 1 discriminator 1 view .LVU2836
	.loc 11 59 55 is_stmt 0 discriminator 1 view .LVU2837
	ldrb	r2, [r1, r4]
	.loc 11 59 58 discriminator 1 view .LVU2838
	cmp	r2, #0
	beq	.L674
.LVL862:
.L669:
	.loc 11 59 58 discriminator 2 view .LVU2839
	cmp	r4, r7
	blt	.L680
.LVL863:
.L674:
	.loc 11 59 58 discriminator 2 view .LVU2840
.LBE2502:
.LBE2503:
	.loc 11 90 13 is_stmt 1 view .LVU2841
	.loc 11 90 23 is_stmt 0 view .LVU2842
	mov	r2, ip
	ldr	r2, [r2, #8]
	mov	r8, r2
.LVL864:
.LBB2504:
.LBI2504:
	.loc 11 60 27 is_stmt 1 view .LVU2843
.LBB2505:
.LBB2506:
	.loc 11 61 13 view .LVU2844
	.loc 11 61 28 view .LVU2845
	.loc 11 62 13 view .LVU2846
	cmp	r2, #0
	bne	.L700
.L730:
.LVL865:
	.loc 11 62 13 is_stmt 0 view .LVU2847
	movs	r1, #48
	.loc 11 62 35 discriminator 1 view .LVU2848
	movs	r5, #1
	add	r2, sp, #24
.LVL866:
	.loc 11 62 35 discriminator 1 view .LVU2849
	strb	r1, [r2]
.LVL867:
	.loc 11 63 24 is_stmt 1 discriminator 1 view .LVU2850
	.loc 11 64 26 discriminator 1 view .LVU2851
.L683:
	.loc 11 64 26 is_stmt 0 discriminator 1 view .LVU2852
	add	r1, sp, #24
	mov	r8, r1
	subs	r2, r5, #1
	add	r2, r2, r8
	adds	r5, r4, r5
	b	.L684
.LVL868:
.L686:
	.loc 11 64 44 is_stmt 1 discriminator 3 view .LVU2853
	.loc 11 64 55 is_stmt 0 discriminator 3 view .LVU2854
	ldrb	r1, [r2]
	.loc 11 64 51 discriminator 3 view .LVU2855
	adds	r4, r4, #1
.LVL869:
	.loc 11 64 55 discriminator 3 view .LVU2856
	strb	r1, [r3, r4]
	.loc 11 64 26 is_stmt 1 discriminator 1 view .LVU2857
	subs	r2, r2, #1
	cmp	r5, r4
	beq	.L685
.LVL870:
.L684:
	.loc 11 64 26 is_stmt 0 discriminator 2 view .LVU2858
	cmp	r4, r7
	blt	.L686
	b	.L658
.LVL871:
.L697:
	.loc 11 64 26 discriminator 2 view .LVU2859
.LBE2506:
.LBE2505:
.LBE2504:
.LBB2509:
.LBB2510:
	.loc 11 59 55 discriminator 1 view .LVU2860
	ldr	r1, .L732+24
.LBE2510:
.LBE2509:
	.loc 11 82 22 view .LVU2861
	movs	r2, #66
.LBB2512:
.LBB2511:
	.loc 11 59 87 discriminator 4 view .LVU2862
	subs	r0, r6, #1
	.loc 11 59 55 discriminator 1 view .LVU2863
	subs	r1, r1, r5
	b	.L670
.LVL872:
.L678:
	.loc 11 59 76 is_stmt 1 discriminator 4 view .LVU2864
	.loc 11 59 83 is_stmt 0 discriminator 4 view .LVU2865
	adds	r4, r4, #1
.LVL873:
	.loc 11 59 87 discriminator 4 view .LVU2866
	strb	r2, [r0, r4]
	.loc 11 59 58 is_stmt 1 discriminator 1 view .LVU2867
	.loc 11 59 55 is_stmt 0 discriminator 1 view .LVU2868
	ldrb	r2, [r1, r4]
	.loc 11 59 58 discriminator 1 view .LVU2869
	cmp	r2, #0
	beq	.L674
.LVL874:
.L670:
	.loc 11 59 58 discriminator 2 view .LVU2870
	cmp	r4, r7
	blt	.L678
.LVL875:
	.loc 11 59 58 discriminator 2 view .LVU2871
.LBE2511:
.LBE2512:
	.loc 11 90 13 is_stmt 1 view .LVU2872
	.loc 11 90 23 is_stmt 0 view .LVU2873
	mov	r2, ip
	ldr	r2, [r2, #8]
	mov	r8, r2
.LVL876:
.LBB2513:
	.loc 11 60 27 is_stmt 1 view .LVU2874
.LBB2508:
.LBB2507:
	.loc 11 61 13 view .LVU2875
	.loc 11 61 28 view .LVU2876
	.loc 11 62 13 view .LVU2877
	cmp	r2, #0
	beq	.L730
.L700:
	.loc 11 62 13 is_stmt 0 view .LVU2878
	mov	r2, ip
.LVL877:
	.loc 11 62 13 view .LVU2879
	str	r2, [sp, #12]
	movs	r2, r4
	movs	r5, #0
	mov	r4, r8
	mov	fp, r6
	mov	r8, r2
.LVL878:
	.loc 11 62 13 view .LVU2880
	str	r3, [sp, #16]
.LVL879:
.L682:
	.loc 11 63 31 is_stmt 1 discriminator 2 view .LVU2881
	.loc 11 63 41 is_stmt 0 discriminator 2 view .LVU2882
	add	r3, sp, #24
	subs	r3, r3, #1
	.loc 11 63 48 discriminator 2 view .LVU2883
	movs	r0, r4
	movs	r1, #10
	.loc 11 63 37 discriminator 2 view .LVU2884
	adds	r5, r5, #1
.LVL880:
	.loc 11 63 41 discriminator 2 view .LVU2885
	adds	r6, r3, r5
	.loc 11 63 48 discriminator 2 view .LVU2886
	bl	__aeabi_uidivmod
.LVL881:
	.loc 11 63 54 discriminator 2 view .LVU2887
	adds	r1, r1, #48
	.loc 11 63 41 discriminator 2 view .LVU2888
	strb	r1, [r6]
	.loc 11 63 61 is_stmt 1 discriminator 2 view .LVU2889
	.loc 11 63 65 is_stmt 0 discriminator 2 view .LVU2890
	movs	r0, r4
	movs	r1, #10
	bl	__aeabi_uidiv
.LVL882:
	movs	r6, r4
	movs	r4, r0
.LVL883:
	.loc 11 63 24 is_stmt 1 discriminator 1 view .LVU2891
	cmp	r6, #9
	bhi	.L682
	ldr	r3, [sp, #12]
	mov	r4, r8
	mov	ip, r3
	mov	r6, fp
	ldr	r3, [sp, #16]
	b	.L683
.LVL884:
.L699:
	.loc 11 63 24 is_stmt 0 discriminator 1 view .LVU2892
.LBE2507:
.LBE2508:
.LBE2513:
.LBB2514:
.LBB2515:
	.loc 11 59 55 discriminator 1 view .LVU2893
	ldr	r1, .L732+28
.LBE2515:
.LBE2514:
	.loc 11 82 22 view .LVU2894
	movs	r2, #83
.LBB2517:
.LBB2516:
	.loc 11 59 87 discriminator 4 view .LVU2895
	subs	r0, r6, #1
	.loc 11 59 55 discriminator 1 view .LVU2896
	subs	r1, r1, r5
	b	.L667
.LVL885:
.L679:
	.loc 11 59 76 is_stmt 1 discriminator 4 view .LVU2897
	.loc 11 59 83 is_stmt 0 discriminator 4 view .LVU2898
	adds	r4, r4, #1
.LVL886:
	.loc 11 59 87 discriminator 4 view .LVU2899
	strb	r2, [r0, r4]
	.loc 11 59 58 is_stmt 1 discriminator 1 view .LVU2900
	.loc 11 59 55 is_stmt 0 discriminator 1 view .LVU2901
	ldrb	r2, [r1, r4]
	.loc 11 59 58 discriminator 1 view .LVU2902
	cmp	r2, #0
	beq	.L674
.LVL887:
.L667:
	.loc 11 59 58 discriminator 2 view .LVU2903
	cmp	r4, r7
	blt	.L679
	b	.L674
.LVL888:
.L695:
	.loc 11 59 58 discriminator 2 view .LVU2904
.LBE2516:
.LBE2517:
.LBB2518:
.LBB2519:
	.loc 11 59 55 discriminator 1 view .LVU2905
	ldr	r1, .L732+32
.LBE2519:
.LBE2518:
	.loc 11 82 22 view .LVU2906
	movs	r2, #82
.LBB2521:
.LBB2520:
	.loc 11 59 87 discriminator 4 view .LVU2907
	subs	r0, r6, #1
	.loc 11 59 55 discriminator 1 view .LVU2908
	subs	r1, r1, r5
	b	.L672
.LVL889:
.L675:
	.loc 11 59 76 is_stmt 1 discriminator 4 view .LVU2909
	.loc 11 59 83 is_stmt 0 discriminator 4 view .LVU2910
	adds	r4, r4, #1
.LVL890:
	.loc 11 59 87 discriminator 4 view .LVU2911
	strb	r2, [r0, r4]
	.loc 11 59 58 is_stmt 1 discriminator 1 view .LVU2912
	.loc 11 59 55 is_stmt 0 discriminator 1 view .LVU2913
	ldrb	r2, [r1, r4]
	.loc 11 59 58 discriminator 1 view .LVU2914
	cmp	r2, #0
	beq	.L674
.LVL891:
.L672:
	.loc 11 59 58 discriminator 2 view .LVU2915
	cmp	r4, r7
	blt	.L675
	b	.L674
.LVL892:
.L694:
	.loc 11 59 58 discriminator 2 view .LVU2916
.LBE2520:
.LBE2521:
.LBB2522:
.LBB2523:
	.loc 11 59 55 discriminator 1 view .LVU2917
	ldr	r1, .L732+36
.LBE2523:
.LBE2522:
	.loc 11 82 22 view .LVU2918
	movs	r2, #82
.LBB2525:
.LBB2524:
	.loc 11 59 87 discriminator 4 view .LVU2919
	subs	r0, r6, #1
	.loc 11 59 55 discriminator 1 view .LVU2920
	subs	r1, r1, r5
	b	.L673
.LVL893:
.L676:
	.loc 11 59 76 is_stmt 1 discriminator 4 view .LVU2921
	.loc 11 59 83 is_stmt 0 discriminator 4 view .LVU2922
	adds	r4, r4, #1
.LVL894:
	.loc 11 59 87 discriminator 4 view .LVU2923
	strb	r2, [r0, r4]
	.loc 11 59 58 is_stmt 1 discriminator 1 view .LVU2924
	.loc 11 59 55 is_stmt 0 discriminator 1 view .LVU2925
	ldrb	r2, [r1, r4]
	.loc 11 59 58 discriminator 1 view .LVU2926
	cmp	r2, #0
	beq	.L674
.LVL895:
.L673:
	.loc 11 59 58 discriminator 2 view .LVU2927
	cmp	r7, r4
	bgt	.L676
	b	.L674
.LVL896:
.L696:
	.loc 11 59 58 discriminator 2 view .LVU2928
.LBE2524:
.LBE2525:
.LBB2526:
.LBB2527:
	.loc 11 59 55 discriminator 1 view .LVU2929
	ldr	r1, .L732+40
.LBE2527:
.LBE2526:
	.loc 11 82 22 view .LVU2930
	movs	r2, #83
.LBB2529:
.LBB2528:
	.loc 11 59 87 discriminator 4 view .LVU2931
	subs	r0, r6, #1
	.loc 11 59 55 discriminator 1 view .LVU2932
	subs	r1, r1, r5
	b	.L671
.LVL897:
.L677:
	.loc 11 59 76 is_stmt 1 discriminator 4 view .LVU2933
	.loc 11 59 83 is_stmt 0 discriminator 4 view .LVU2934
	adds	r4, r4, #1
.LVL898:
	.loc 11 59 87 discriminator 4 view .LVU2935
	strb	r2, [r0, r4]
	.loc 11 59 58 is_stmt 1 discriminator 1 view .LVU2936
	.loc 11 59 55 is_stmt 0 discriminator 1 view .LVU2937
	ldrb	r2, [r1, r4]
	.loc 11 59 58 discriminator 1 view .LVU2938
	cmp	r2, #0
	beq	.L674
.LVL899:
.L671:
	.loc 11 59 58 discriminator 2 view .LVU2939
	cmp	r4, r7
	blt	.L677
	b	.L674
.LVL900:
.L692:
	.loc 11 59 58 discriminator 2 view .LVU2940
.LBE2528:
.LBE2529:
.LBB2530:
.LBB2488:
.LBB2484:
	.loc 11 61 32 view .LVU2941
	movs	r2, #0
.LVL901:
	.loc 11 61 32 view .LVU2942
	mov	r8, r2
	mov	r2, ip
	str	r2, [sp, #12]
	movs	r2, r4
	mov	r5, fp
	mov	r4, r8
	mov	fp, r6
.LVL902:
	.loc 11 61 32 view .LVU2943
	mov	r8, r2
	str	r3, [sp, #16]
.LVL903:
.L659:
	.loc 11 63 31 is_stmt 1 discriminator 2 view .LVU2944
	.loc 11 63 41 is_stmt 0 discriminator 2 view .LVU2945
	add	r3, sp, #24
	subs	r3, r3, #1
	.loc 11 63 48 discriminator 2 view .LVU2946
	movs	r0, r5
	movs	r1, #10
	.loc 11 63 37 discriminator 2 view .LVU2947
	adds	r4, r4, #1
.LVL904:
	.loc 11 63 41 discriminator 2 view .LVU2948
	adds	r6, r3, r4
	.loc 11 63 48 discriminator 2 view .LVU2949
	bl	__aeabi_uidivmod
.LVL905:
	.loc 11 63 54 discriminator 2 view .LVU2950
	adds	r1, r1, #48
	.loc 11 63 41 discriminator 2 view .LVU2951
	strb	r1, [r6]
	.loc 11 63 61 is_stmt 1 discriminator 2 view .LVU2952
	.loc 11 63 65 is_stmt 0 discriminator 2 view .LVU2953
	movs	r0, r5
	movs	r1, #10
	bl	__aeabi_uidiv
.LVL906:
	movs	r6, r5
	movs	r5, r0
.LVL907:
	.loc 11 63 24 is_stmt 1 discriminator 1 view .LVU2954
	cmp	r6, #9
	bhi	.L659
	mov	r2, r8
	ldr	r3, [sp, #12]
	mov	r8, r4
	mov	ip, r3
	mov	r6, fp
	movs	r4, r2
.LVL908:
	.loc 11 63 24 is_stmt 0 discriminator 1 view .LVU2955
	ldr	r3, [sp, #16]
	b	.L660
.LVL909:
.L728:
	.loc 11 63 24 discriminator 1 view .LVU2956
	mov	r8, r6
.LVL910:
.L657:
	.loc 11 63 24 discriminator 1 view .LVU2957
.LBE2484:
.LBE2488:
.LBE2530:
.LBE2535:
.LBE2468:
	.loc 11 93 9 is_stmt 1 view .LVU2958
.LBB2537:
.LBI2537:
	.loc 21 47 17 view .LVU2959
.LBB2538:
	.loc 21 48 9 view .LVU2960
	.syntax divided
@ 48 "J:\PROJECT\auroraOS\arch\arm\cortex-m\cm0plus/arch_impl.hpp" 1
	cpsie i
@ 0 "" 2
	.thumb
	.syntax unified
.LBE2538:
.LBE2537:
	.loc 11 95 9 view .LVU2961
	.loc 11 95 18 is_stmt 0 view .LVU2962
	movs	r3, #0
	mov	r2, r8
	strb	r3, [r2, r4]
	.loc 11 96 9 is_stmt 1 view .LVU2963
	.loc 11 96 16 is_stmt 0 view .LVU2964
	b	.L649
.LVL911:
.L690:
.LBB2539:
.LBB2540:
	.loc 11 59 55 discriminator 1 view .LVU2965
	movs	r3, #45
.LVL912:
	.loc 11 59 55 discriminator 1 view .LVU2966
	ldr	r2, .L732+44
	subs	r2, r2, r4
.LVL913:
.L652:
	.loc 11 59 58 discriminator 2 view .LVU2967
	cmp	r7, r4
	bgt	.LCB10370
	b	.L654	@long jump
.LCB10370:
	.loc 11 59 76 is_stmt 1 discriminator 4 view .LVU2968
	.loc 11 59 83 is_stmt 0 discriminator 4 view .LVU2969
	adds	r4, r4, #1
.LVL914:
	.loc 11 59 87 discriminator 4 view .LVU2970
	strb	r3, [r1, r4]
	.loc 11 59 58 is_stmt 1 discriminator 1 view .LVU2971
	.loc 11 59 55 is_stmt 0 discriminator 1 view .LVU2972
	ldrb	r3, [r2, r4]
	.loc 11 59 58 discriminator 1 view .LVU2973
	cmp	r3, #0
	bne	.L652
.LVL915:
	.loc 11 59 58 discriminator 1 view .LVU2974
.LBE2540:
.LBE2539:
	.loc 11 70 9 is_stmt 1 view .LVU2975
.LBB2541:
	.loc 20 200 23 view .LVU2976
.LBB2463:
	.loc 20 201 9 view .LVU2977
	.loc 20 201 26 is_stmt 0 view .LVU2978
	ldr	r6, .L732+4
	movs	r5, #1
	ldr	r3, [r6]
	movs	r2, r3
	ands	r2, r5
	mov	r9, r2
	tst	r3, r5
	beq	.LCB10399
	b	.L731	@long jump
.LCB10399:
.L726:
.LVL916:
.LBB2456:
.LBI2456:
	.loc 20 604 5 is_stmt 1 view .LVU2979
	.loc 20 605 27 discriminator 1 view .LVU2980
	.loc 20 605 37 discriminator 3 view .LVU2981
	.loc 20 605 9 discriminator 3 view .LVU2982
	.loc 20 605 27 discriminator 1 view .LVU2983
	.loc 20 605 37 discriminator 3 view .LVU2984
	.loc 20 605 9 discriminator 3 view .LVU2985
	.loc 20 605 27 discriminator 1 view .LVU2986
	.loc 20 605 37 discriminator 3 view .LVU2987
	.loc 20 605 9 discriminator 3 view .LVU2988
	.loc 20 605 27 discriminator 1 view .LVU2989
	.loc 20 605 37 discriminator 3 view .LVU2990
	.loc 20 605 9 discriminator 3 view .LVU2991
	.loc 20 605 27 discriminator 1 view .LVU2992
	.loc 20 605 37 discriminator 3 view .LVU2993
.LBB2457:
.LBB2458:
	.loc 20 604 17 is_stmt 0 view .LVU2994
	movs	r2, #133
	ldr	r3, .L732+8
	lsls	r2, r2, #5
	mov	r10, r2
	mov	fp, r3
	movs	r1, #0
	movs	r0, r3
.LVL917:
	.loc 20 604 17 view .LVU2995
	str	r3, [sp, #4]
	bl	memset
.LVL918:
	mov	r2, fp
	mov	r3, r10
	mov	r1, r9
	str	r1, [r2, r3]
	movs	r1, r2
	mov	r2, r9
	ldr	r3, .L732+12
.LBE2458:
.LBE2457:
.LBE2456:
	.loc 20 201 26 discriminator 1 view .LVU2996
	str	r5, [r6]
.LBB2462:
.LBB2461:
.LBB2459:
	.loc 20 604 17 view .LVU2997
	str	r2, [r1, r3]
.LBE2459:
	ldr	r3, .L732+48
	ldr	r2, .L732+52
	str	r2, [r1, r3]
	ldr	r3, .L732+56
	adds	r2, r2, #255
	strh	r2, [r1, r3]
.LBB2460:
	movs	r2, r1
	mov	r1, r9
	ldr	r3, .L732+60
	strb	r1, [r2, r3]
.LBE2460:
.LBE2461:
	.loc 20 605 9 is_stmt 1 discriminator 3 view .LVU2998
.LVL919:
	.loc 20 605 27 discriminator 1 view .LVU2999
	.loc 20 605 27 is_stmt 0 discriminator 1 view .LVU3000
.LBE2462:
	b	.L656
.LVL920:
.L693:
	.loc 20 605 27 discriminator 1 view .LVU3001
.LBE2463:
.LBE2541:
.LBB2542:
.LBB2536:
	.loc 11 82 22 view .LVU3002
	movs	r4, r5
	movs	r1, #85
.LBB2531:
.LBB2532:
	.loc 11 59 55 discriminator 1 view .LVU3003
	ldr	r2, .L732+64
	.loc 11 59 87 discriminator 4 view .LVU3004
	subs	r0, r6, #1
	.loc 11 59 55 discriminator 1 view .LVU3005
	subs	r2, r2, r5
.LVL921:
.L666:
	.loc 11 59 58 discriminator 2 view .LVU3006
	cmp	r4, r7
	blt	.LCB10498
	b	.L674	@long jump
.LCB10498:
	.loc 11 59 76 is_stmt 1 discriminator 4 view .LVU3007
.LVL922:
	.loc 11 59 83 is_stmt 0 discriminator 4 view .LVU3008
	adds	r4, r4, #1
.LVL923:
	.loc 11 59 87 discriminator 4 view .LVU3009
	strb	r1, [r0, r4]
	.loc 11 59 58 is_stmt 1 discriminator 1 view .LVU3010
	.loc 11 59 55 is_stmt 0 discriminator 1 view .LVU3011
	ldrb	r1, [r2, r4]
	.loc 11 59 58 discriminator 1 view .LVU3012
	cmp	r1, #0
	bne	.L666
	b	.L674
.L733:
	.align	2
.L732:
	.word	.LC92
	.word	_ZGVZN9Scheduler8instanceEvE5sched
	.word	_ZZN9Scheduler8instanceEvE5sched
	.word	4260
	.word	.L668
	.word	.LC110
	.word	.LC106
	.word	.LC108
	.word	.LC100
	.word	.LC102
	.word	.LC104
	.word	.LC94
	.word	4264
	.word	-256
	.word	4268
	.word	4270
	.word	.LC112
.LBE2532:
.LBE2531:
.LBE2536:
.LBE2542:
	.cfi_endproc
.LFE810:
	.size	_ZN12TaskInfoNode4readEPciiPv, .-_ZN12TaskInfoNode4readEPciiPv
	.section	.text._ZN4Arch16start_first_taskEPmPFvvEm,"axG",%progbits,_ZN4Arch16start_first_taskEPmPFvvEm,comdat
	.align	1
	.p2align 2,,3
	.weak	_ZN4Arch16start_first_taskEPmPFvvEm
	.syntax unified
	.code	16
	.thumb_func
	.type	_ZN4Arch16start_first_taskEPmPFvvEm, %function
_ZN4Arch16start_first_taskEPmPFvvEm:
.LVL924:
.LFB17:
	.loc 21 210 72 is_stmt 1 view -0
	.cfi_startproc
	@ Naked Function: prologue and epilogue provided by programmer.
	@ Volatile: function does not return.
	@ args = 0, pretend = 0, frame = 0
	@ frame_needed = 0, uses_anonymous_args = 0
	.loc 21 211 9 view .LVU3014
	.loc 21 211 26 view .LVU3015
	.loc 21 211 45 view .LVU3016
	.loc 21 212 9 view .LVU3017
	.loc 21 210 72 is_stmt 0 view .LVU3018
	movs	r3, r0
	mov	ip, r1
	mov	r8, r2
	.loc 21 212 9 view .LVU3019
	.syntax divided
@ 212 "J:\PROJECT\auroraOS\arch\arm\cortex-m\cm0plus/arch_impl.hpp" 1
	ldmia  r0!, {r4-r7}  
	msr    psp, r0       
	movs   r0, r2        
	movs   r1, #1        
	ands   r0, r1        
	msr    control, r0   
	nop                  
	cpsie  i             
	bx     r1            
	
@ 0 "" 2
	.loc 21 226 9 is_stmt 1 view .LVU3020
	.thumb
	.syntax unified
	.cfi_endproc
.LFE17:
	.size	_ZN4Arch16start_first_taskEPmPFvvEm, .-_ZN4Arch16start_first_taskEPmPFvvEm
	.section	.text._ZN9Scheduler8instanceEv,"axG",%progbits,_ZN9Scheduler8instanceEv,comdat
	.align	1
	.p2align 2,,3
	.weak	_ZN9Scheduler8instanceEv
	.syntax unified
	.code	16
	.thumb_func
	.type	_ZN9Scheduler8instanceEv, %function
_ZN9Scheduler8instanceEv:
.LFB63:
	.loc 20 200 23 view -0
	.cfi_startproc
	@ args = 0, pretend = 0, frame = 0
	@ frame_needed = 0, uses_anonymous_args = 0
	.loc 20 201 9 view .LVU3022
	.loc 20 200 23 is_stmt 0 view .LVU3023
	push	{r4, r5, r6, r7, lr}
	.cfi_def_cfa_offset 20
	.cfi_offset 4, -20
	.cfi_offset 5, -16
	.cfi_offset 6, -12
	.cfi_offset 7, -8
	.cfi_offset 14, -4
	.loc 20 201 26 view .LVU3024
	ldr	r6, .L739
	.loc 20 200 23 view .LVU3025
	mov	lr, r8
	.loc 20 201 26 view .LVU3026
	ldr	r3, [r6]
	movs	r5, #1
	movs	r7, r3
	.loc 20 200 23 view .LVU3027
	push	{lr}
	.cfi_def_cfa_offset 24
	.cfi_offset 8, -24
.LBB2547:
.LBB2548:
.LBB2549:
	.loc 20 604 17 view .LVU3028
	ldr	r4, .L739+4
.LBE2549:
.LBE2548:
.LBE2547:
	.loc 20 201 26 view .LVU3029
	ands	r7, r5
	tst	r3, r5
	beq	.L738
.L736:
	.loc 20 202 9 is_stmt 1 view .LVU3030
	.loc 20 203 5 is_stmt 0 view .LVU3031
	@ sp needed
	movs	r0, r4
	pop	{r7}
	mov	r8, r7
	pop	{r4, r5, r6, r7, pc}
.L738:
.LVL925:
.LBB2555:
.LBI2547:
	.loc 20 604 5 is_stmt 1 view .LVU3032
	.loc 20 605 27 discriminator 1 view .LVU3033
	.loc 20 605 37 discriminator 3 view .LVU3034
	.loc 20 605 9 discriminator 3 view .LVU3035
	.loc 20 605 27 discriminator 1 view .LVU3036
	.loc 20 605 37 discriminator 3 view .LVU3037
	.loc 20 605 9 discriminator 3 view .LVU3038
	.loc 20 605 27 discriminator 1 view .LVU3039
	.loc 20 605 37 discriminator 3 view .LVU3040
	.loc 20 605 9 discriminator 3 view .LVU3041
	.loc 20 605 27 discriminator 1 view .LVU3042
	.loc 20 605 37 discriminator 3 view .LVU3043
	.loc 20 605 9 discriminator 3 view .LVU3044
	.loc 20 605 27 discriminator 1 view .LVU3045
	.loc 20 605 37 discriminator 3 view .LVU3046
.LBB2553:
.LBB2550:
	.loc 20 604 17 is_stmt 0 view .LVU3047
	movs	r3, #133
	lsls	r3, r3, #5
	mov	r8, r3
	movs	r2, r3
	movs	r1, #0
	movs	r0, r4
	bl	memset
.LVL926:
	mov	r3, r8
	str	r7, [r4, r3]
	ldr	r3, .L739+8
.LBE2550:
	ldr	r2, .L739+12
.LBB2551:
	str	r7, [r4, r3]
.LBE2551:
	ldr	r3, .L739+16
.LBE2553:
.LBE2555:
	.loc 20 201 26 discriminator 1 view .LVU3048
	str	r5, [r6]
.LBB2556:
.LBB2554:
	.loc 20 604 17 view .LVU3049
	str	r2, [r4, r3]
	ldr	r3, .L739+20
	adds	r2, r2, #255
	strh	r2, [r4, r3]
.LBB2552:
	ldr	r3, .L739+24
	strb	r7, [r4, r3]
.LBE2552:
.LBE2554:
	.loc 20 605 9 is_stmt 1 discriminator 3 view .LVU3050
.LVL927:
	.loc 20 605 27 discriminator 1 view .LVU3051
	.loc 20 605 27 is_stmt 0 discriminator 1 view .LVU3052
.LBE2556:
	b	.L736
.L740:
	.align	2
.L739:
	.word	_ZGVZN9Scheduler8instanceEvE5sched
	.word	_ZZN9Scheduler8instanceEvE5sched
	.word	4260
	.word	-256
	.word	4264
	.word	4268
	.word	4270
	.cfi_endproc
.LFE63:
	.size	_ZN9Scheduler8instanceEv, .-_ZN9Scheduler8instanceEv
	.section	.text._ZN9Scheduler14set_task_stateEm9TaskState,"axG",%progbits,_ZN9Scheduler14set_task_stateEm9TaskState,comdat
	.align	1
	.p2align 2,,3
	.weak	_ZN9Scheduler14set_task_stateEm9TaskState
	.syntax unified
	.code	16
	.thumb_func
	.type	_ZN9Scheduler14set_task_stateEm9TaskState, %function
_ZN9Scheduler14set_task_stateEm9TaskState:
.LVL928:
.LFB67:
	.loc 20 264 10 is_stmt 1 view -0
